ccopy_reg
_reconstructor
p0
(cmodel.content
Document
p1
c__builtin__
object
p2
Ntp3
Rp4
(dp5
S'elements'
p6
g0
(cmodel.content
Content_part
p7
g2
Ntp8
Rp9
(dp10
S'list'
p11
g0
(cmodel.container
List
p12
c__builtin__
list
p13
(lp14
g0
(cmodel.content
Paragraph
p15
g2
Ntp16
Rp17
(dp18
g6
g0
(g7
g2
Ntp19
Rp20
(dp21
g11
g0
(g12
g13
(lp22
g0
(cmodel.content
Sentence
p23
g2
Ntp24
Rp25
(dp26
g6
g0
(g7
g2
Ntp27
Rp28
(dp29
g11
g0
(g12
g13
(lp30
g0
(cmodel.content
Word
p31
g2
Ntp32
Rp33
(dp34
g6
g0
(g7
g2
Ntp35
Rp36
(dp37
g11
g0
(g12
g13
(lp38
g0
(cmodel.content
Char
p39
g2
Ntp40
Rp41
(dp42
g6
g0
(g7
g2
Ntp43
Rp44
(dp45
g11
g0
(g12
g13
(lp46
S'P'
p47
atp48
Rp49
sbsbag0
(g39
g2
Ntp50
Rp51
(dp52
g6
g0
(g7
g2
Ntp53
Rp54
(dp55
g11
g0
(g12
g13
(lp56
S'r'
p57
atp58
Rp59
sbsbag0
(g39
g2
Ntp60
Rp61
(dp62
g6
g0
(g7
g2
Ntp63
Rp64
(dp65
g11
g0
(g12
g13
(lp66
S'a'
p67
atp68
Rp69
sbsbag0
(g39
g2
Ntp70
Rp71
(dp72
g6
g0
(g7
g2
Ntp73
Rp74
(dp75
g11
g0
(g12
g13
(lp76
S'e'
p77
atp78
Rp79
sbsbag0
(g39
g2
Ntp80
Rp81
(dp82
g6
g0
(g7
g2
Ntp83
Rp84
(dp85
g11
g0
(g12
g13
(lp86
S's'
p87
atp88
Rp89
sbsbag71
ag0
(g39
g2
Ntp90
Rp91
(dp92
g6
g0
(g7
g2
Ntp93
Rp94
(dp95
g11
g0
(g12
g13
(lp96
S'n'
p97
atp98
Rp99
sbsbag0
(g39
g2
Ntp100
Rp101
(dp102
g6
g0
(g7
g2
Ntp103
Rp104
(dp105
g11
g0
(g12
g13
(lp106
S't'
p107
atp108
Rp109
sbsbatp110
Rp111
sbsbag0
(g31
g2
Ntp112
Rp113
(dp114
g6
g0
(g7
g2
Ntp115
Rp116
(dp117
g11
g0
(g12
g13
(lp118
g0
(g39
g2
Ntp119
Rp120
(dp121
g6
g0
(g7
g2
Ntp122
Rp123
(dp124
g11
g0
(g12
g13
(lp125
S'q'
p126
atp127
Rp128
sbsbag0
(g39
g2
Ntp129
Rp130
(dp131
g6
g0
(g7
g2
Ntp132
Rp133
(dp134
g11
g0
(g12
g13
(lp135
S'u'
p136
atp137
Rp138
sbsbag0
(g39
g2
Ntp139
Rp140
(dp141
g6
g0
(g7
g2
Ntp142
Rp143
(dp144
g11
g0
(g12
g13
(lp145
S'i'
p146
atp147
Rp148
sbsbag81
atp149
Rp150
sbsbag0
(g31
g2
Ntp151
Rp152
(dp153
g6
g0
(g7
g2
Ntp154
Rp155
(dp156
g11
g0
(g12
g13
(lp157
g0
(g39
g2
Ntp158
Rp159
(dp160
g6
g0
(g7
g2
Ntp161
Rp162
(dp163
g11
g0
(g12
g13
(lp164
S'c'
p165
atp166
Rp167
sbsbag0
(g39
g2
Ntp168
Rp169
(dp170
g6
g0
(g7
g2
Ntp171
Rp172
(dp173
g11
g0
(g12
g13
(lp174
S'o'
p175
atp176
Rp177
sbsbag0
(g39
g2
Ntp178
Rp179
(dp180
g6
g0
(g7
g2
Ntp181
Rp182
(dp183
g11
g0
(g12
g13
(lp184
S'm'
p185
atp186
Rp187
sbsbag179
ag169
ag0
(g39
g2
Ntp188
Rp189
(dp190
g6
g0
(g7
g2
Ntp191
Rp192
(dp193
g11
g0
(g12
g13
(lp194
S'd'
p195
atp196
Rp197
sbsbag169
atp198
Rp199
sbsbag0
(g31
g2
Ntp200
Rp201
(dp202
g6
g0
(g7
g2
Ntp203
Rp204
(dp205
g11
g0
(g12
g13
(lp206
g61
ag51
ag159
ag130
atp207
Rp208
sbsbatp209
Rp210
sbsbag0
(g23
g2
Ntp211
Rp212
(dp213
g6
g0
(g7
g2
Ntp214
Rp215
(dp216
g11
g0
(g12
g13
(lp217
g0
(g31
g2
Ntp218
Rp219
(dp220
g6
g0
(g7
g2
Ntp221
Rp222
(dp223
g11
g0
(g12
g13
(lp224
g41
ag51
ag169
ag140
ag91
atp225
Rp226
sbsbag0
(g31
g2
Ntp227
Rp228
(dp229
g6
g0
(g7
g2
Ntp230
Rp231
(dp232
g11
g0
(g12
g13
(lp233
g61
ag101
atp234
Rp235
sbsbag0
(g31
g2
Ntp236
Rp237
(dp238
g6
g0
(g7
g2
Ntp239
Rp240
(dp241
g11
g0
(g12
g13
(lp242
g159
ag169
ag91
ag0
(g39
g2
Ntp243
Rp244
(dp245
g6
g0
(g7
g2
Ntp246
Rp247
(dp248
g11
g0
(g12
g13
(lp249
S'v'
p250
atp251
Rp252
sbsbag61
ag0
(g39
g2
Ntp253
Rp254
(dp255
g6
g0
(g7
g2
Ntp256
Rp257
(dp258
g11
g0
(g12
g13
(lp259
S'l'
p260
atp261
Rp262
sbsbag254
ag140
ag81
atp263
Rp264
sbsbag0
(g31
g2
Ntp265
Rp266
(dp267
g6
g0
(g7
g2
Ntp268
Rp269
(dp270
g11
g0
(g12
g13
(lp271
g179
ag61
ag130
ag51
ag140
ag81
atp272
Rp273
sbsbatp274
Rp275
sbsbag0
(g23
g2
Ntp276
Rp277
(dp278
g6
g0
(g7
g2
Ntp279
Rp280
(dp281
g11
g0
(g12
g13
(lp282
g33
ag0
(g31
g2
Ntp283
Rp284
(dp285
g6
g0
(g7
g2
Ntp286
Rp287
(dp288
g11
g0
(g12
g13
(lp289
g0
(g39
g2
Ntp290
Rp291
(dp292
g6
g0
(g7
g2
Ntp293
Rp294
(dp295
g11
g0
(g12
g13
(lp296
S'p'
p297
atp298
Rp299
sbsbag169
ag51
ag101
ag101
ag140
ag101
ag169
ag51
atp300
Rp301
sbsbag0
(g31
g2
Ntp302
Rp303
(dp304
g6
g0
(g7
g2
Ntp305
Rp306
(dp307
g11
g0
(g12
g13
(lp308
g71
ag254
ag71
ag140
ag0
(g39
g2
Ntp309
Rp310
(dp311
g6
g0
(g7
g2
Ntp312
Rp313
(dp314
g11
g0
(g12
g13
(lp315
S'f'
p316
atp317
Rp318
sbsbag71
ag91
ag189
atp319
Rp320
sbsbag0
(g31
g2
Ntp321
Rp322
(dp323
g6
g0
(g7
g2
Ntp324
Rp325
(dp326
g11
g0
(g12
g13
(lp327
g179
ag61
ag254
ag71
ag81
ag130
ag61
ag189
ag61
atp328
Rp329
sbsbatp330
Rp331
sbsbag0
(g23
g2
Ntp332
Rp333
(dp334
g6
g0
(g7
g2
Ntp335
Rp336
(dp337
g11
g0
(g12
g13
(lp338
g0
(g31
g2
Ntp339
Rp340
(dp341
g6
g0
(g7
g2
Ntp342
Rp343
(dp344
g11
g0
(g12
g13
(lp345
g0
(g39
g2
Ntp346
Rp347
(dp348
g6
g0
(g7
g2
Ntp349
Rp350
(dp351
g11
g0
(g12
g13
(lp352
S'M'
p353
atp354
Rp355
sbsbag61
ag130
ag51
ag140
ag81
atp356
Rp357
sbsbag0
(g31
g2
Ntp358
Rp359
(dp360
g6
g0
(g7
g2
Ntp361
Rp362
(dp363
g11
g0
(g12
g13
(lp364
g91
ag71
ag159
atp365
Rp366
sbsbag0
(g31
g2
Ntp367
Rp368
(dp369
g6
g0
(g7
g2
Ntp370
Rp371
(dp372
g11
g0
(g12
g13
(lp373
g61
ag254
ag140
ag120
ag130
ag71
ag101
atp374
Rp375
sbsbag0
(g31
g2
Ntp376
Rp377
(dp378
g6
g0
(g7
g2
Ntp379
Rp380
(dp381
g11
g0
(g12
g13
(lp382
g71
ag254
ag140
ag101
atp383
Rp384
sbsbag0
(g31
g2
Ntp385
Rp386
(dp387
g6
g0
(g7
g2
Ntp388
Rp389
(dp390
g11
g0
(g12
g13
(lp391
g310
ag61
ag130
ag159
ag140
ag0
(g39
g2
Ntp392
Rp393
(dp394
g6
g0
(g7
g2
Ntp395
Rp396
(dp397
g11
g0
(g12
g13
(lp398
S'b'
p399
atp400
Rp401
sbsbag130
ag81
atp402
Rp403
sbsbag0
(g31
g2
Ntp404
Rp405
(dp406
g6
g0
(g7
g2
Ntp407
Rp408
(dp409
g11
g0
(g12
g13
(lp410
g140
ag91
ag101
ag71
ag51
ag189
ag130
ag179
atp411
Rp412
sbsbag0
(g31
g2
Ntp413
Rp414
(dp415
g6
g0
(g7
g2
Ntp416
Rp417
(dp418
g11
g0
(g12
g13
(lp419
g179
ag61
ag0
(g39
g2
Ntp420
Rp421
(dp422
g6
g0
(g7
g2
Ntp423
Rp424
(dp425
g11
g0
(g12
g13
(lp426
S'g'
p427
atp428
Rp429
sbsbag91
ag61
atp430
Rp431
sbsbatp432
Rp433
sbsbag0
(g23
g2
Ntp434
Rp435
(dp436
g6
g0
(g7
g2
Ntp437
Rp438
(dp439
g11
g0
(g12
g13
(lp440
g0
(g31
g2
Ntp441
Rp442
(dp443
g6
g0
(g7
g2
Ntp444
Rp445
(dp446
g11
g0
(g12
g13
(lp447
g0
(g39
g2
Ntp448
Rp449
(dp450
g6
g0
(g7
g2
Ntp451
Rp452
(dp453
g11
g0
(g12
g13
(lp454
S'S'
p455
atp456
Rp457
sbsbag71
ag189
atp458
Rp459
sbsbag0
(g31
g2
Ntp460
Rp461
(dp462
g6
g0
(g7
g2
Ntp463
Rp464
(dp465
g11
g0
(g12
g13
(lp466
g101
ag140
ag91
ag159
ag140
ag189
ag130
ag91
ag101
atp467
Rp468
sbsbag0
(g31
g2
Ntp469
Rp470
(dp471
g6
g0
(g7
g2
Ntp472
Rp473
(dp474
g11
g0
(g12
g13
(lp475
g130
ag51
ag91
ag61
atp476
Rp477
sbsbag0
(g31
g2
Ntp478
Rp479
(dp480
g6
g0
(g7
g2
Ntp481
Rp482
(dp483
g11
g0
(g12
g13
(lp484
g254
ag61
ag169
ag51
ag71
ag71
ag101
atp485
Rp486
sbsbag0
(g31
g2
Ntp487
Rp488
(dp489
g6
g0
(g7
g2
Ntp490
Rp491
(dp492
g11
g0
(g12
g13
(lp493
g71
ag91
ag140
ag179
atp494
Rp495
sbsbag0
(g31
g2
Ntp496
Rp497
(dp498
g6
g0
(g7
g2
Ntp499
Rp500
(dp501
g11
g0
(g12
g13
(lp502
g291
ag169
ag51
ag101
ag61
atp503
Rp504
sbsbag0
(g31
g2
Ntp505
Rp506
(dp507
g6
g0
(g7
g2
Ntp508
Rp509
(dp510
g11
g0
(g12
g13
(lp511
g71
ag254
ag71
ag179
ag71
ag91
ag101
ag130
ag179
atp512
Rp513
sbsbatp514
Rp515
sbsbag0
(g23
g2
Ntp516
Rp517
(dp518
g6
g0
(g7
g2
Ntp519
Rp520
(dp521
g11
g0
(g12
g13
(lp522
g0
(g31
g2
Ntp523
Rp524
(dp525
g6
g0
(g7
g2
Ntp526
Rp527
(dp528
g11
g0
(g12
g13
(lp529
g0
(g39
g2
Ntp530
Rp531
(dp532
g6
g0
(g7
g2
Ntp533
Rp534
(dp535
g11
g0
(g12
g13
(lp536
S'C'
p537
atp538
Rp539
sbsbag130
ag51
ag61
ag393
ag140
ag101
ag130
ag51
atp540
Rp541
sbsbag0
(g31
g2
Ntp542
Rp543
(dp544
g6
g0
(g7
g2
Ntp545
Rp546
(dp547
g11
g0
(g12
g13
(lp548
g291
ag51
ag71
ag101
ag140
ag130
ag179
atp549
Rp550
sbsbag0
(g31
g2
Ntp551
Rp552
(dp553
g6
g0
(g7
g2
Ntp554
Rp555
(dp556
g11
g0
(g12
g13
(lp557
g130
ag254
ag101
ag51
ag140
ag159
ag140
ag71
ag81
atp558
Rp559
sbsbag488
ag0
(g31
g2
Ntp560
Rp561
(dp562
g6
g0
(g7
g2
Ntp563
Rp564
(dp565
g11
g0
(g12
g13
(lp566
g81
ag71
ag189
atp567
Rp568
sbsbag0
(g31
g2
Ntp569
Rp570
(dp571
g6
g0
(g7
g2
Ntp572
Rp573
(dp574
g11
g0
(g12
g13
(lp575
g101
ag71
ag179
ag291
ag169
ag51
atp576
Rp577
sbsbatp578
Rp579
sbsbag0
(g23
g2
Ntp580
Rp581
(dp582
g6
g0
(g7
g2
Ntp583
Rp584
(dp585
g11
g0
(g12
g13
(lp586
g0
(g31
g2
Ntp587
Rp588
(dp589
g6
g0
(g7
g2
Ntp590
Rp591
(dp592
g11
g0
(g12
g13
(lp593
g0
(g39
g2
Ntp594
Rp595
(dp596
g6
g0
(g7
g2
Ntp597
Rp598
(dp599
g11
g0
(g12
g13
(lp600
S'N'
p601
atp602
Rp603
sbsbag130
ag91
ag159
atp604
Rp605
sbsbag0
(g31
g2
Ntp606
Rp607
(dp608
g6
g0
(g7
g2
Ntp609
Rp610
(dp611
g11
g0
(g12
g13
(lp612
g91
ag71
ag120
ag130
ag71
atp613
Rp614
sbsbag0
(g31
g2
Ntp615
Rp616
(dp617
g6
g0
(g7
g2
Ntp618
Rp619
(dp620
g11
g0
(g12
g13
(lp621
g71
ag81
ag101
atp622
Rp623
sbsbag0
(g31
g2
Ntp624
Rp625
(dp626
g6
g0
(g7
g2
Ntp627
Rp628
(dp629
g11
g0
(g12
g13
(lp630
g169
ag51
ag91
ag61
ag51
ag71
atp631
Rp632
sbsbag113
ag0
(g31
g2
Ntp633
Rp634
(dp635
g6
g0
(g7
g2
Ntp636
Rp637
(dp638
g11
g0
(g12
g13
(lp639
g254
ag61
ag159
ag130
ag81
atp640
Rp641
sbsbag0
(g31
g2
Ntp642
Rp643
(dp644
g6
g0
(g7
g2
Ntp645
Rp646
(dp647
g11
g0
(g12
g13
(lp648
g71
ag130
atp649
Rp650
sbsbag0
(g31
g2
Ntp651
Rp652
(dp653
g6
g0
(g7
g2
Ntp654
Rp655
(dp656
g11
g0
(g12
g13
(lp657
g61
ag254
ag140
ag120
ag130
ag61
ag179
atp658
Rp659
sbsbag0
(g31
g2
Ntp660
Rp661
(dp662
g6
g0
(g7
g2
Ntp663
Rp664
(dp665
g11
g0
(g12
g13
(lp666
g51
ag130
ag101
ag51
ag130
ag179
atp667
Rp668
sbsbag0
(g31
g2
Ntp669
Rp670
(dp671
g6
g0
(g7
g2
Ntp672
Rp673
(dp674
g11
g0
(g12
g13
(lp675
g169
ag51
ag159
ag140
atp676
Rp677
sbsbatp678
Rp679
sbsbag0
(g23
g2
Ntp680
Rp681
(dp682
g6
g0
(g7
g2
Ntp683
Rp684
(dp685
g11
g0
(g12
g13
(lp686
g219
ag0
(g31
g2
Ntp687
Rp688
(dp689
g6
g0
(g7
g2
Ntp690
Rp691
(dp692
g11
g0
(g12
g13
(lp693
g81
ag169
ag254
ag254
ag140
ag159
ag140
ag101
ag130
ag189
ag140
ag91
atp694
Rp695
sbsbag0
(g31
g2
Ntp696
Rp697
(dp698
g6
g0
(g7
g2
Ntp699
Rp700
(dp701
g11
g0
(g12
g13
(lp702
g244
ag71
ag81
ag101
ag140
ag393
ag130
ag254
ag130
ag179
atp703
Rp704
sbsbag0
(g31
g2
Ntp705
Rp706
(dp707
g6
g0
(g7
g2
Ntp708
Rp709
(dp710
g11
g0
(g12
g13
(lp711
g91
ag140
ag81
ag140
atp712
Rp713
sbsbag0
(g31
g2
Ntp714
Rp715
(dp716
g6
g0
(g7
g2
Ntp717
Rp718
(dp719
g11
g0
(g12
g13
(lp720
g91
ag169
ag91
atp721
Rp722
sbsbag0
(g31
g2
Ntp723
Rp724
(dp725
g6
g0
(g7
g2
Ntp726
Rp727
(dp728
g11
g0
(g12
g13
(lp729
g51
ag0
(g39
g2
Ntp730
Rp731
(dp732
g6
g0
(g7
g2
Ntp733
Rp734
(dp735
g11
g0
(g12
g13
(lp736
S'h'
p737
atp738
Rp739
sbsbag169
ag91
ag159
ag130
ag81
atp740
Rp741
sbsbatp742
Rp743
sbsbag0
(g23
g2
Ntp744
Rp745
(dp746
g6
g0
(g7
g2
Ntp747
Rp748
(dp749
g11
g0
(g12
g13
(lp750
g0
(g31
g2
Ntp751
Rp752
(dp753
g6
g0
(g7
g2
Ntp754
Rp755
(dp756
g11
g0
(g12
g13
(lp757
g0
(g39
g2
Ntp758
Rp759
(dp760
g6
g0
(g7
g2
Ntp761
Rp762
(dp763
g11
g0
(g12
g13
(lp764
S'V'
p765
atp766
Rp767
sbsbag71
ag81
ag101
ag140
ag393
ag130
ag254
ag130
ag179
atp768
Rp769
sbsbag0
(g31
g2
Ntp770
Rp771
(dp772
g6
g0
(g7
g2
Ntp773
Rp774
(dp775
g11
g0
(g12
g13
(lp776
g254
ag140
ag393
ag71
ag51
ag169
atp777
Rp778
sbsbag0
(g31
g2
Ntp779
Rp780
(dp781
g6
g0
(g7
g2
Ntp782
Rp783
(dp784
g11
g0
(g12
g13
(lp785
g254
ag169
ag51
ag71
ag179
atp786
Rp787
sbsbag237
ag228
ag0
(g31
g2
Ntp788
Rp789
(dp790
g6
g0
(g7
g2
Ntp791
Rp792
(dp793
g11
g0
(g12
g13
(lp794
g244
ag71
ag254
ag140
ag101
atp795
Rp796
sbsbag0
(g31
g2
Ntp797
Rp798
(dp799
g6
g0
(g7
g2
Ntp800
Rp801
(dp802
g11
g0
(g12
g13
(lp803
g71
ag421
ag71
ag101
atp804
Rp805
sbsbag0
(g31
g2
Ntp806
Rp807
(dp808
g6
g0
(g7
g2
Ntp809
Rp810
(dp811
g11
g0
(g12
g13
(lp812
g310
ag71
ag51
ag179
ag71
ag91
ag101
ag130
ag179
atp813
Rp814
sbsbag0
(g31
g2
Ntp815
Rp816
(dp817
g6
g0
(g7
g2
Ntp818
Rp819
(dp820
g11
g0
(g12
g13
(lp821
g244
ag169
ag254
ag130
ag101
ag291
ag61
ag101
atp822
Rp823
sbsbag201
atp824
Rp825
sbsbag0
(g23
g2
Ntp826
Rp827
(dp828
g6
g0
(g7
g2
Ntp829
Rp830
(dp831
g11
g0
(g12
g13
(lp832
g0
(g31
g2
Ntp833
Rp834
(dp835
g6
g0
(g7
g2
Ntp836
Rp837
(dp838
g11
g0
(g12
g13
(lp839
g347
ag169
ag51
ag393
ag140
atp840
Rp841
sbsbag807
ag266
ag0
(g31
g2
Ntp842
Rp843
(dp844
g6
g0
(g7
g2
Ntp845
Rp846
(dp847
g11
g0
(g12
g13
(lp848
g81
ag140
ag101
atp849
Rp850
sbsbag0
(g31
g2
Ntp851
Rp852
(dp853
g6
g0
(g7
g2
Ntp854
Rp855
(dp856
g11
g0
(g12
g13
(lp857
g61
ag179
ag71
ag101
atp858
Rp859
sbsbag0
(g31
g2
Ntp860
Rp861
(dp862
g6
g0
(g7
g2
Ntp863
Rp864
(dp865
g11
g0
(g12
g13
(lp866
g91
ag140
ag81
ag254
atp867
Rp868
sbsbag0
(g31
g2
Ntp869
Rp870
(dp871
g6
g0
(g7
g2
Ntp872
Rp873
(dp874
g11
g0
(g12
g13
(lp875
g71
ag130
ag140
ag81
ag179
ag169
ag189
atp876
Rp877
sbsbag152
atp878
Rp879
sbsbag0
(g23
g2
Ntp880
Rp881
(dp882
g6
g0
(g7
g2
Ntp883
Rp884
(dp885
g11
g0
(g12
g13
(lp886
g0
(g31
g2
Ntp887
Rp888
(dp889
g6
g0
(g7
g2
Ntp890
Rp891
(dp892
g11
g0
(g12
g13
(lp893
g0
(g39
g2
Ntp894
Rp895
(dp896
g6
g0
(g7
g2
Ntp897
Rp898
(dp899
g11
g0
(g12
g13
(lp900
S'E'
p901
atp902
Rp903
sbsbag101
ag140
ag61
ag179
atp904
Rp905
sbsbag0
(g31
g2
Ntp906
Rp907
(dp908
g6
g0
(g7
g2
Ntp909
Rp910
(dp911
g11
g0
(g12
g13
(lp912
g244
ag140
ag101
ag61
ag71
atp913
Rp914
sbsbag0
(g31
g2
Ntp915
Rp916
(dp917
g6
g0
(g7
g2
Ntp918
Rp919
(dp920
g11
g0
(g12
g13
(lp921
g159
ag169
ag91
ag81
ag71
ag159
ag101
ag71
ag101
ag130
ag51
atp922
Rp923
sbsbag0
(g31
g2
Ntp924
Rp925
(dp926
g6
g0
(g7
g2
Ntp927
Rp928
(dp929
g11
g0
(g12
g13
(lp930
g61
ag130
ag421
ag130
ag71
atp931
Rp932
sbsbatp933
Rp934
sbsbatp935
Rp936
sbsbag0
(g15
g2
Ntp937
Rp938
(dp939
g6
g0
(g7
g2
Ntp940
Rp941
(dp942
g11
g0
(g12
g13
(lp943
g0
(g23
g2
Ntp944
Rp945
(dp946
g6
g0
(g7
g2
Ntp947
Rp948
(dp949
g11
g0
(g12
g13
(lp950
g524
ag916
ag0
(g31
g2
Ntp951
Rp952
(dp953
g6
g0
(g7
g2
Ntp954
Rp955
(dp956
g11
g0
(g12
g13
(lp957
g393
ag140
ag393
ag71
ag91
ag189
ag130
ag179
atp958
Rp959
sbsbag0
(g31
g2
Ntp960
Rp961
(dp962
g6
g0
(g7
g2
Ntp963
Rp964
(dp965
g11
g0
(g12
g13
(lp966
g81
ag61
ag291
ag140
ag71
ag91
atp967
Rp968
sbsbag907
ag0
(g31
g2
Ntp969
Rp970
(dp971
g6
g0
(g7
g2
Ntp972
Rp973
(dp974
g11
g0
(g12
g13
(lp975
g254
ag130
ag159
ag101
ag130
ag81
atp976
Rp977
sbsbatp978
Rp979
sbsbag0
(g23
g2
Ntp980
Rp981
(dp982
g6
g0
(g7
g2
Ntp983
Rp984
(dp985
g11
g0
(g12
g13
(lp986
g752
ag266
ag0
(g31
g2
Ntp987
Rp988
(dp989
g6
g0
(g7
g2
Ntp990
Rp991
(dp992
g11
g0
(g12
g13
(lp993
g61
ag91
ag101
ag71
atp994
Rp995
sbsbag970
ag0
(g31
g2
Ntp996
Rp997
(dp998
g6
g0
(g7
g2
Ntp999
Rp1000
(dp1001
g11
g0
(g12
g13
(lp1002
g71
ag101
atp1003
Rp1004
sbsbag0
(g31
g2
Ntp1005
Rp1006
(dp1007
g6
g0
(g7
g2
Ntp1008
Rp1009
(dp1010
g11
g0
(g12
g13
(lp1011
g71
ag254
ag140
ag101
atp1012
Rp1013
sbsbag0
(g31
g2
Ntp1014
Rp1015
(dp1016
g6
g0
(g7
g2
Ntp1017
Rp1018
(dp1019
g11
g0
(g12
g13
(lp1020
g120
ag130
ag140
ag81
atp1021
Rp1022
sbsbag0
(g31
g2
Ntp1023
Rp1024
(dp1025
g6
g0
(g7
g2
Ntp1026
Rp1027
(dp1028
g11
g0
(g12
g13
(lp1029
g61
ag159
ag159
ag130
ag179
ag81
ag61
ag91
atp1030
Rp1031
sbsbag807
ag0
(g31
g2
Ntp1032
Rp1033
(dp1034
g6
g0
(g7
g2
Ntp1035
Rp1036
(dp1037
g11
g0
(g12
g13
(lp1038
g169
ag189
ag140
ag169
atp1039
Rp1040
sbsbatp1041
Rp1042
sbsbag0
(g23
g2
Ntp1043
Rp1044
(dp1045
g6
g0
(g7
g2
Ntp1046
Rp1047
(dp1048
g11
g0
(g12
g13
(lp1049
g834
ag0
(g31
g2
Ntp1050
Rp1051
(dp1052
g6
g0
(g7
g2
Ntp1053
Rp1054
(dp1055
g11
g0
(g12
g13
(lp1056
g81
ag159
ag71
ag254
ag71
ag51
ag140
ag81
ag120
ag130
ag71
atp1057
Rp1058
sbsbag861
ag561
ag0
(g31
g2
Ntp1059
Rp1060
(dp1061
g6
g0
(g7
g2
Ntp1062
Rp1063
(dp1064
g11
g0
(g12
g13
(lp1065
g120
ag130
ag61
ag179
atp1066
Rp1067
sbsbag952
ag0
(g31
g2
Ntp1068
Rp1069
(dp1070
g6
g0
(g7
g2
Ntp1071
Rp1072
(dp1073
g11
g0
(g12
g13
(lp1074
g130
ag254
ag254
ag61
ag179
ag159
ag169
ag51
ag291
ag71
ag51
atp1075
Rp1076
sbsbatp1077
Rp1078
sbsbag0
(g23
g2
Ntp1079
Rp1080
(dp1081
g6
g0
(g7
g2
Ntp1082
Rp1083
(dp1084
g11
g0
(g12
g13
(lp1085
g0
(g31
g2
Ntp1086
Rp1087
(dp1088
g6
g0
(g7
g2
Ntp1089
Rp1090
(dp1091
g11
g0
(g12
g13
(lp1092
g347
ag61
ag71
ag159
ag71
ag91
ag61
ag81
atp1093
Rp1094
sbsbag266
ag0
(g31
g2
Ntp1095
Rp1096
(dp1097
g6
g0
(g7
g2
Ntp1098
Rp1099
(dp1100
g11
g0
(g12
g13
(lp1101
g71
ag91
ag140
ag179
atp1102
Rp1103
sbsbag461
ag561
ag0
(g31
g2
Ntp1104
Rp1105
(dp1106
g6
g0
(g7
g2
Ntp1107
Rp1108
(dp1109
g11
g0
(g12
g13
(lp1110
g81
ag130
ag81
ag159
ag140
ag291
ag140
ag101
atp1111
Rp1112
sbsbag0
(g31
g2
Ntp1113
Rp1114
(dp1115
g6
g0
(g7
g2
Ntp1116
Rp1117
(dp1118
g11
g0
(g12
g13
(lp1119
g140
ag91
atp1120
Rp1121
sbsbag0
(g31
g2
Ntp1122
Rp1123
(dp1124
g6
g0
(g7
g2
Ntp1125
Rp1126
(dp1127
g11
g0
(g12
g13
(lp1128
g81
ag61
ag421
ag140
ag101
ag101
ag140
ag81
atp1129
Rp1130
sbsbag0
(g31
g2
Ntp1131
Rp1132
(dp1133
g6
g0
(g7
g2
Ntp1134
Rp1135
(dp1136
g11
g0
(g12
g13
(lp1137
g140
ag91
atp1138
Rp1139
sbsbag0
(g31
g2
Ntp1140
Rp1141
(dp1142
g6
g0
(g7
g2
Ntp1143
Rp1144
(dp1145
g11
g0
(g12
g13
(lp1146
g189
ag140
ag61
ag179
atp1147
Rp1148
sbsbatp1149
Rp1150
sbsbag0
(g23
g2
Ntp1151
Rp1152
(dp1153
g6
g0
(g7
g2
Ntp1154
Rp1155
(dp1156
g11
g0
(g12
g13
(lp1157
g888
ag0
(g31
g2
Ntp1158
Rp1159
(dp1160
g6
g0
(g7
g2
Ntp1161
Rp1162
(dp1163
g11
g0
(g12
g13
(lp1164
g61
atp1165
Rp1166
sbsbag0
(g31
g2
Ntp1167
Rp1168
(dp1169
g6
g0
(g7
g2
Ntp1170
Rp1171
(dp1172
g11
g0
(g12
g13
(lp1173
g291
ag169
ag81
ag130
ag71
ag51
ag71
atp1174
Rp1175
sbsbag988
ag715
ag0
(g31
g2
Ntp1176
Rp1177
(dp1178
g6
g0
(g7
g2
Ntp1179
Rp1180
(dp1181
g11
g0
(g12
g13
(lp1182
g61
ag189
ag140
ag291
ag140
ag81
ag159
ag140
ag91
ag421
atp1183
Rp1184
sbsbag0
(g31
g2
Ntp1185
Rp1186
(dp1187
g6
g0
(g7
g2
Ntp1188
Rp1189
(dp1190
g11
g0
(g12
g13
(lp1191
g91
ag140
ag393
ag731
atp1192
Rp1193
sbsbatp1194
Rp1195
sbsbag0
(g23
g2
Ntp1196
Rp1197
(dp1198
g6
g0
(g7
g2
Ntp1199
Rp1200
(dp1201
g11
g0
(g12
g13
(lp1202
g0
(g31
g2
Ntp1203
Rp1204
(dp1205
g6
g0
(g7
g2
Ntp1206
Rp1207
(dp1208
g11
g0
(g12
g13
(lp1209
g0
(g39
g2
Ntp1210
Rp1211
(dp1212
g6
g0
(g7
g2
Ntp1213
Rp1214
(dp1215
g11
g0
(g12
g13
(lp1216
S'A'
p1217
atp1218
Rp1219
sbsbag71
ag91
ag71
ag61
ag91
atp1220
Rp1221
sbsbag561
ag0
(g31
g2
Ntp1222
Rp1223
(dp1224
g6
g0
(g7
g2
Ntp1225
Rp1226
(dp1227
g11
g0
(g12
g13
(lp1228
g101
ag169
ag51
ag101
ag169
ag51
atp1229
Rp1230
sbsbag0
(g31
g2
Ntp1231
Rp1232
(dp1233
g6
g0
(g7
g2
Ntp1234
Rp1235
(dp1236
g11
g0
(g12
g13
(lp1237
g140
ag179
ag291
ag71
ag51
ag189
ag140
ag71
ag101
atp1238
Rp1239
sbsbag652
ag1060
ag0
(g31
g2
Ntp1240
Rp1241
(dp1242
g6
g0
(g7
g2
Ntp1243
Rp1244
(dp1245
g11
g0
(g12
g13
(lp1246
g91
ag169
ag91
atp1247
Rp1248
sbsbag0
(g31
g2
Ntp1249
Rp1250
(dp1251
g6
g0
(g7
g2
Ntp1252
Rp1253
(dp1254
g11
g0
(g12
g13
(lp1255
g731
ag71
ag91
ag189
ag51
ag71
ag51
ag140
ag101
atp1256
Rp1257
sbsbag0
(g31
g2
Ntp1258
Rp1259
(dp1260
g6
g0
(g7
g2
Ntp1261
Rp1262
(dp1263
g11
g0
(g12
g13
(lp1264
g71
ag51
ag169
ag81
atp1265
Rp1266
sbsbatp1267
Rp1268
sbsbag0
(g23
g2
Ntp1269
Rp1270
(dp1271
g6
g0
(g7
g2
Ntp1272
Rp1273
(dp1274
g11
g0
(g12
g13
(lp1275
g0
(g31
g2
Ntp1276
Rp1277
(dp1278
g6
g0
(g7
g2
Ntp1279
Rp1280
(dp1281
g11
g0
(g12
g13
(lp1282
g0
(g39
g2
Ntp1283
Rp1284
(dp1285
g6
g0
(g7
g2
Ntp1286
Rp1287
(dp1288
g11
g0
(g12
g13
(lp1289
S'U'
p1290
atp1291
Rp1292
sbsbag101
atp1293
Rp1294
sbsbag0
(g31
g2
Ntp1295
Rp1296
(dp1297
g6
g0
(g7
g2
Ntp1298
Rp1299
(dp1300
g11
g0
(g12
g13
(lp1301
g159
ag169
ag91
ag421
ag130
ag71
atp1302
Rp1303
sbsbag0
(g31
g2
Ntp1304
Rp1305
(dp1306
g6
g0
(g7
g2
Ntp1307
Rp1308
(dp1309
g11
g0
(g12
g13
(lp1310
g254
ag71
ag169
atp1311
Rp1312
sbsbag228
ag0
(g31
g2
Ntp1313
Rp1314
(dp1315
g6
g0
(g7
g2
Ntp1316
Rp1317
(dp1318
g11
g0
(g12
g13
(lp1319
g71
ag51
ag61
ag101
atp1320
Rp1321
sbsbag0
(g31
g2
Ntp1322
Rp1323
(dp1324
g6
g0
(g7
g2
Ntp1325
Rp1326
(dp1327
g11
g0
(g12
g13
(lp1328
g71
ag421
ag71
ag81
ag101
ag61
ag81
atp1329
Rp1330
sbsbag0
(g31
g2
Ntp1331
Rp1332
(dp1333
g6
g0
(g7
g2
Ntp1334
Rp1335
(dp1336
g11
g0
(g12
g13
(lp1337
g179
ag169
ag254
ag254
ag140
ag81
atp1338
Rp1339
sbsbatp1340
Rp1341
sbsbag0
(g23
g2
Ntp1342
Rp1343
(dp1344
g6
g0
(g7
g2
Ntp1345
Rp1346
(dp1347
g11
g0
(g12
g13
(lp1348
g442
ag870
ag0
(g31
g2
Ntp1349
Rp1350
(dp1351
g6
g0
(g7
g2
Ntp1352
Rp1353
(dp1354
g11
g0
(g12
g13
(lp1355
g179
ag71
ag101
ag130
ag81
atp1356
Rp1357
sbsbag0
(g31
g2
Ntp1358
Rp1359
(dp1360
g6
g0
(g7
g2
Ntp1361
Rp1362
(dp1363
g11
g0
(g12
g13
(lp1364
g244
ag140
ag244
ag71
ag51
ag51
ag61
atp1365
Rp1366
sbsbag1051
ag0
(g31
g2
Ntp1367
Rp1368
(dp1369
g6
g0
(g7
g2
Ntp1370
Rp1371
(dp1372
g11
g0
(g12
g13
(lp1373
g71
ag81
ag101
atp1374
Rp1375
sbsbag0
(g31
g2
Ntp1376
Rp1377
(dp1378
g6
g0
(g7
g2
Ntp1379
Rp1380
(dp1381
g11
g0
(g12
g13
(lp1382
g244
ag140
ag101
ag61
ag71
atp1383
Rp1384
sbsbag697
ag925
atp1385
Rp1386
sbsbag0
(g23
g2
Ntp1387
Rp1388
(dp1389
g6
g0
(g7
g2
Ntp1390
Rp1391
(dp1392
g11
g0
(g12
g13
(lp1393
g0
(g31
g2
Ntp1394
Rp1395
(dp1396
g6
g0
(g7
g2
Ntp1397
Rp1398
(dp1399
g11
g0
(g12
g13
(lp1400
g0
(g39
g2
Ntp1401
Rp1402
(dp1403
g6
g0
(g7
g2
Ntp1404
Rp1405
(dp1406
g11
g0
(g12
g13
(lp1407
S'Q'
p1408
atp1409
Rp1410
sbsbag130
ag140
ag81
ag120
ag130
ag71
atp1411
Rp1412
sbsbag843
ag852
ag0
(g31
g2
Ntp1413
Rp1414
(dp1415
g6
g0
(g7
g2
Ntp1416
Rp1417
(dp1418
g11
g0
(g12
g13
(lp1419
g254
ag71
ag159
ag101
ag130
ag81
atp1420
Rp1421
sbsbag0
(g31
g2
Ntp1422
Rp1423
(dp1424
g6
g0
(g7
g2
Ntp1425
Rp1426
(dp1427
g11
g0
(g12
g13
(lp1428
g189
ag140
ag421
ag91
ag140
ag81
ag81
ag140
ag179
atp1429
Rp1430
sbsbag303
ag607
ag0
(g31
g2
Ntp1431
Rp1432
(dp1433
g6
g0
(g7
g2
Ntp1434
Rp1435
(dp1436
g11
g0
(g12
g13
(lp1437
g61
ag101
atp1438
Rp1439
sbsbag0
(g31
g2
Ntp1440
Rp1441
(dp1442
g6
g0
(g7
g2
Ntp1443
Rp1444
(dp1445
g11
g0
(g12
g13
(lp1446
g310
ag51
ag140
ag91
ag421
ag140
ag254
ag254
ag61
atp1447
Rp1448
sbsbag1350
atp1449
Rp1450
sbsbag0
(g23
g2
Ntp1451
Rp1452
(dp1453
g6
g0
(g7
g2
Ntp1454
Rp1455
(dp1456
g11
g0
(g12
g13
(lp1457
g588
ag0
(g31
g2
Ntp1458
Rp1459
(dp1460
g6
g0
(g7
g2
Ntp1461
Rp1462
(dp1463
g11
g0
(g12
g13
(lp1464
g61
ag159
atp1465
Rp1466
sbsbag0
(g31
g2
Ntp1467
Rp1468
(dp1469
g6
g0
(g7
g2
Ntp1470
Rp1471
(dp1472
g11
g0
(g12
g13
(lp1473
g81
ag71
ag179
ag291
ag71
ag51
atp1474
Rp1475
sbsbag670
atp1476
Rp1477
sbsbag0
(g23
g2
Ntp1478
Rp1479
(dp1480
g6
g0
(g7
g2
Ntp1481
Rp1482
(dp1483
g11
g0
(g12
g13
(lp1484
g219
ag405
ag1006
ag0
(g31
g2
Ntp1485
Rp1486
(dp1487
g6
g0
(g7
g2
Ntp1488
Rp1489
(dp1490
g11
g0
(g12
g13
(lp1491
g244
ag71
ag254
atp1492
Rp1493
sbsbag1314
ag0
(g31
g2
Ntp1494
Rp1495
(dp1496
g6
g0
(g7
g2
Ntp1497
Rp1498
(dp1499
g11
g0
(g12
g13
(lp1500
g130
ag254
ag101
ag51
ag140
ag159
ag71
ag81
atp1501
Rp1502
sbsbag843
ag852
ag461
ag1223
ag0
(g31
g2
Ntp1503
Rp1504
(dp1505
g6
g0
(g7
g2
Ntp1506
Rp1507
(dp1508
g11
g0
(g12
g13
(lp1509
g310
ag71
ag130
ag421
ag140
ag61
ag101
atp1510
Rp1511
sbsbatp1512
Rp1513
sbsbag0
(g23
g2
Ntp1514
Rp1515
(dp1516
g6
g0
(g7
g2
Ntp1517
Rp1518
(dp1519
g11
g0
(g12
g13
(lp1520
g834
ag706
ag0
(g31
g2
Ntp1521
Rp1522
(dp1523
g6
g0
(g7
g2
Ntp1524
Rp1525
(dp1526
g11
g0
(g12
g13
(lp1527
g91
ag130
ag254
ag254
ag61
atp1528
Rp1529
sbsbag1069
ag0
(g31
g2
Ntp1530
Rp1531
(dp1532
g6
g0
(g7
g2
Ntp1533
Rp1534
(dp1535
g11
g0
(g12
g13
(lp1536
g71
ag130
atp1537
Rp1538
sbsbag0
(g31
g2
Ntp1539
Rp1540
(dp1541
g6
g0
(g7
g2
Ntp1542
Rp1543
(dp1544
g11
g0
(g12
g13
(lp1545
g254
ag140
ag421
ag130
ag254
ag61
atp1546
Rp1547
sbsbag1241
ag1504
ag652
ag0
(g31
g2
Ntp1548
Rp1549
(dp1550
g6
g0
(g7
g2
Ntp1551
Rp1552
(dp1553
g11
g0
(g12
g13
(lp1554
g179
ag140
atp1555
Rp1556
sbsbatp1557
Rp1558
sbsbag0
(g23
g2
Ntp1559
Rp1560
(dp1561
g6
g0
(g7
g2
Ntp1562
Rp1563
(dp1564
g11
g0
(g12
g13
(lp1565
g752
ag0
(g31
g2
Ntp1566
Rp1567
(dp1568
g6
g0
(g7
g2
Ntp1569
Rp1570
(dp1571
g11
g0
(g12
g13
(lp1572
g61
ag91
ag101
ag71
atp1573
Rp1574
sbsbag0
(g31
g2
Ntp1575
Rp1576
(dp1577
g6
g0
(g7
g2
Ntp1578
Rp1579
(dp1580
g11
g0
(g12
g13
(lp1581
g140
ag291
ag81
ag130
ag179
atp1582
Rp1583
sbsbag0
(g31
g2
Ntp1584
Rp1585
(dp1586
g6
g0
(g7
g2
Ntp1587
Rp1588
(dp1589
g11
g0
(g12
g13
(lp1590
g291
ag51
ag140
ag179
ag140
ag81
atp1591
Rp1592
sbsbag1132
ag386
ag670
ag970
ag997
ag0
(g31
g2
Ntp1593
Rp1594
(dp1595
g6
g0
(g7
g2
Ntp1596
Rp1597
(dp1598
g11
g0
(g12
g13
(lp1599
g130
ag254
ag101
ag51
ag140
ag159
ag71
ag81
atp1600
Rp1601
sbsbag1168
ag0
(g31
g2
Ntp1602
Rp1603
(dp1604
g6
g0
(g7
g2
Ntp1605
Rp1606
(dp1607
g11
g0
(g12
g13
(lp1608
g159
ag130
ag393
ag140
ag254
ag140
ag61
atp1609
Rp1610
sbsbag0
(g31
g2
Ntp1611
Rp1612
(dp1613
g6
g0
(g7
g2
Ntp1614
Rp1615
(dp1616
g11
g0
(g12
g13
(lp1617
g531
ag130
ag51
ag61
ag71
ag0
(g39
g2
Ntp1618
Rp1619
(dp1620
g6
g0
(g7
g2
Ntp1621
Rp1622
(dp1623
g11
g0
(g12
g13
(lp1624
S';'
p1625
atp1626
Rp1627
sbsbatp1628
Rp1629
sbsbag1204
ag228
ag0
(g31
g2
Ntp1630
Rp1631
(dp1632
g6
g0
(g7
g2
Ntp1633
Rp1634
(dp1635
g11
g0
(g12
g13
(lp1636
g101
ag51
ag140
ag81
ag101
ag140
ag120
ag130
ag71
atp1637
Rp1638
sbsbag961
atp1639
Rp1640
sbsbag0
(g23
g2
Ntp1641
Rp1642
(dp1643
g6
g0
(g7
g2
Ntp1644
Rp1645
(dp1646
g11
g0
(g12
g13
(lp1647
g834
ag1468
ag0
(g31
g2
Ntp1648
Rp1649
(dp1650
g6
g0
(g7
g2
Ntp1651
Rp1652
(dp1653
g11
g0
(g12
g13
(lp1654
g189
ag61
ag291
ag140
ag393
ag130
ag81
atp1655
Rp1656
sbsbag0
(g31
g2
Ntp1657
Rp1658
(dp1659
g6
g0
(g7
g2
Ntp1660
Rp1661
(dp1662
g11
g0
(g12
g13
(lp1663
g0
(g39
g2
Ntp1664
Rp1665
(dp1666
g6
g0
(g7
g2
Ntp1667
Rp1668
(dp1669
g11
g0
(g12
g13
(lp1670
S'j'
p1671
atp1672
Rp1673
sbsbag130
ag81
ag101
ag169
atp1674
Rp1675
sbsbag0
(g31
g2
Ntp1676
Rp1677
(dp1678
g6
g0
(g7
g2
Ntp1679
Rp1680
(dp1681
g11
g0
(g12
g13
(lp1682
g130
ag101
atp1683
Rp1684
sbsbag1177
atp1685
Rp1686
sbsbag0
(g23
g2
Ntp1687
Rp1688
(dp1689
g6
g0
(g7
g2
Ntp1690
Rp1691
(dp1692
g11
g0
(g12
g13
(lp1693
g0
(g31
g2
Ntp1694
Rp1695
(dp1696
g6
g0
(g7
g2
Ntp1697
Rp1698
(dp1699
g11
g0
(g12
g13
(lp1700
g1211
ag254
ag140
ag120
ag130
ag61
ag179
atp1701
Rp1702
sbsbag607
ag780
ag386
ag359
ag368
ag1432
ag1649
ag907
ag861
atp1703
Rp1704
sbsbatp1705
Rp1706
sbsbag0
(g15
g2
Ntp1707
Rp1708
(dp1709
g6
g0
(g7
g2
Ntp1710
Rp1711
(dp1712
g11
g0
(g12
g13
(lp1713
g0
(g23
g2
Ntp1714
Rp1715
(dp1716
g6
g0
(g7
g2
Ntp1717
Rp1718
(dp1719
g11
g0
(g12
g13
(lp1720
g0
(g31
g2
Ntp1721
Rp1722
(dp1723
g6
g0
(g7
g2
Ntp1724
Rp1725
(dp1726
g11
g0
(g12
g13
(lp1727
g595
ag130
ag254
ag254
ag61
atp1728
Rp1729
sbsbag843
ag852
ag807
ag0
(g31
g2
Ntp1730
Rp1731
(dp1732
g6
g0
(g7
g2
Ntp1733
Rp1734
(dp1735
g11
g0
(g12
g13
(lp1736
g189
ag130
ag140
atp1737
Rp1738
sbsbatp1739
Rp1740
sbsbag0
(g23
g2
Ntp1741
Rp1742
(dp1743
g6
g0
(g7
g2
Ntp1744
Rp1745
(dp1746
g11
g0
(g12
g13
(lp1747
g1395
ag916
ag625
ag1033
ag715
ag0
(g31
g2
Ntp1748
Rp1749
(dp1750
g6
g0
(g7
g2
Ntp1751
Rp1752
(dp1753
g11
g0
(g12
g13
(lp1754
g140
ag179
ag291
ag71
ag51
ag189
ag140
ag71
ag101
atp1755
Rp1756
sbsbatp1757
Rp1758
sbsbag0
(g23
g2
Ntp1759
Rp1760
(dp1761
g6
g0
(g7
g2
Ntp1762
Rp1763
(dp1764
g11
g0
(g12
g13
(lp1765
g33
ag652
ag1549
ag907
ag0
(g31
g2
Ntp1766
Rp1767
(dp1768
g6
g0
(g7
g2
Ntp1769
Rp1770
(dp1771
g11
g0
(g12
g13
(lp1772
g310
ag71
ag254
ag140
ag81
atp1773
Rp1774
sbsbag0
(g31
g2
Ntp1775
Rp1776
(dp1777
g6
g0
(g7
g2
Ntp1778
Rp1779
(dp1780
g11
g0
(g12
g13
(lp1781
g254
ag61
ag159
ag140
ag91
ag140
ag61
atp1782
Rp1783
sbsbag997
ag0
(g31
g2
Ntp1784
Rp1785
(dp1786
g6
g0
(g7
g2
Ntp1787
Rp1788
(dp1789
g11
g0
(g12
g13
(lp1790
g244
ag130
ag254
ag291
ag130
ag101
ag61
ag101
ag71
atp1791
Rp1792
sbsbag1767
ag303
atp1793
Rp1794
sbsbag0
(g23
g2
Ntp1795
Rp1796
(dp1797
g6
g0
(g7
g2
Ntp1798
Rp1799
(dp1800
g11
g0
(g12
g13
(lp1801
g0
(g31
g2
Ntp1802
Rp1803
(dp1804
g6
g0
(g7
g2
Ntp1805
Rp1806
(dp1807
g11
g0
(g12
g13
(lp1808
g0
(g39
g2
Ntp1809
Rp1810
(dp1811
g6
g0
(g7
g2
Ntp1812
Rp1813
(dp1814
g11
g0
(g12
g13
(lp1815
S'D'
p1816
atp1817
Rp1818
sbsbag169
ag91
ag71
ag159
atp1819
Rp1820
sbsbag152
ag0
(g31
g2
Ntp1821
Rp1822
(dp1823
g6
g0
(g7
g2
Ntp1824
Rp1825
(dp1826
g11
g0
(g12
g13
(lp1827
g81
ag71
ag179
atp1828
Rp1829
sbsbag0
(g31
g2
Ntp1830
Rp1831
(dp1832
g6
g0
(g7
g2
Ntp1833
Rp1834
(dp1835
g11
g0
(g12
g13
(lp1836
g140
ag189
atp1837
Rp1838
sbsbag1767
ag0
(g31
g2
Ntp1839
Rp1840
(dp1841
g6
g0
(g7
g2
Ntp1842
Rp1843
(dp1844
g11
g0
(g12
g13
(lp1845
g81
ag169
ag189
ag61
ag254
ag71
ag81
atp1846
Rp1847
sbsbag543
atp1848
Rp1849
sbsbag0
(g23
g2
Ntp1850
Rp1851
(dp1852
g6
g0
(g7
g2
Ntp1853
Rp1854
(dp1855
g11
g0
(g12
g13
(lp1856
g1695
ag0
(g31
g2
Ntp1857
Rp1858
(dp1859
g6
g0
(g7
g2
Ntp1860
Rp1861
(dp1862
g11
g0
(g12
g13
(lp1863
g254
ag169
ag393
ag169
ag51
ag101
ag140
ag81
atp1864
Rp1865
sbsbag561
ag1305
ag359
ag0
(g31
g2
Ntp1866
Rp1867
(dp1868
g6
g0
(g7
g2
Ntp1869
Rp1870
(dp1871
g11
g0
(g12
g13
(lp1872
g61
ag130
ag159
ag101
ag169
ag51
atp1873
Rp1874
sbsbatp1875
Rp1876
sbsbag0
(g23
g2
Ntp1877
Rp1878
(dp1879
g6
g0
(g7
g2
Ntp1880
Rp1881
(dp1882
g11
g0
(g12
g13
(lp1883
g834
ag907
ag0
(g31
g2
Ntp1884
Rp1885
(dp1886
g6
g0
(g7
g2
Ntp1887
Rp1888
(dp1889
g11
g0
(g12
g13
(lp1890
g189
ag140
ag159
ag101
ag130
ag179
atp1891
Rp1892
sbsbag1767
atp1893
Rp1894
sbsbag0
(g23
g2
Ntp1895
Rp1896
(dp1897
g6
g0
(g7
g2
Ntp1898
Rp1899
(dp1900
g11
g0
(g12
g13
(lp1901
g1395
ag1531
ag1631
ag0
(g31
g2
Ntp1902
Rp1903
(dp1904
g6
g0
(g7
g2
Ntp1905
Rp1906
(dp1907
g11
g0
(g12
g13
(lp1908
g179
ag61
ag81
ag81
ag61
atp1909
Rp1910
sbsbatp1911
Rp1912
sbsbatp1913
Rp1914
sbsbag0
(g15
g2
Ntp1915
Rp1916
(dp1917
g6
g0
(g7
g2
Ntp1918
Rp1919
(dp1920
g11
g0
(g12
g13
(lp1921
g0
(g23
g2
Ntp1922
Rp1923
(dp1924
g6
g0
(g7
g2
Ntp1925
Rp1926
(dp1927
g11
g0
(g12
g13
(lp1928
g1395
ag461
ag1749
ag0
(g31
g2
Ntp1929
Rp1930
(dp1931
g6
g0
(g7
g2
Ntp1932
Rp1933
(dp1934
g11
g0
(g12
g13
(lp1935
g189
ag130
ag140
atp1936
Rp1937
sbsbag1831
ag661
ag414
ag807
ag1486
atp1938
Rp1939
sbsbag0
(g23
g2
Ntp1940
Rp1941
(dp1942
g6
g0
(g7
g2
Ntp1943
Rp1944
(dp1945
g11
g0
(g12
g13
(lp1946
g1722
ag1677
ag1223
ag1168
ag1822
ag0
(g31
g2
Ntp1947
Rp1948
(dp1949
g6
g0
(g7
g2
Ntp1950
Rp1951
(dp1952
g11
g0
(g12
g13
(lp1953
g244
ag71
ag731
ag140
ag159
ag130
ag254
ag61
atp1954
Rp1955
sbsbag1051
atp1956
Rp1957
sbsbag0
(g23
g2
Ntp1958
Rp1959
(dp1960
g6
g0
(g7
g2
Ntp1961
Rp1962
(dp1963
g11
g0
(g12
g13
(lp1964
g834
ag1649
ag1350
ag1677
ag1033
ag0
(g31
g2
Ntp1965
Rp1966
(dp1967
g6
g0
(g7
g2
Ntp1968
Rp1969
(dp1970
g11
g0
(g12
g13
(lp1971
g159
ag130
ag51
ag81
ag130
ag81
atp1972
Rp1973
sbsbag916
atp1974
Rp1975
sbsbag0
(g23
g2
Ntp1976
Rp1977
(dp1978
g6
g0
(g7
g2
Ntp1979
Rp1980
(dp1981
g11
g0
(g12
g13
(lp1982
g0
(g31
g2
Ntp1983
Rp1984
(dp1985
g6
g0
(g7
g2
Ntp1986
Rp1987
(dp1988
g11
g0
(g12
g13
(lp1989
g531
ag51
ag61
ag81
atp1990
Rp1991
sbsbag0
(g31
g2
Ntp1992
Rp1993
(dp1994
g6
g0
(g7
g2
Ntp1995
Rp1996
(dp1997
g11
g0
(g12
g13
(lp1998
g310
ag61
ag159
ag140
ag254
ag140
ag81
ag140
ag81
atp1999
Rp2000
sbsbag1414
ag843
ag852
ag0
(g31
g2
Ntp2001
Rp2002
(dp2003
g6
g0
(g7
g2
Ntp2004
Rp2005
(dp2006
g11
g0
(g12
g13
(lp2007
g179
ag61
ag101
ag101
ag140
ag81
atp2008
Rp2009
sbsbag0
(g31
g2
Ntp2010
Rp2011
(dp2012
g6
g0
(g7
g2
Ntp2013
Rp2014
(dp2015
g11
g0
(g12
g13
(lp2016
g179
ag169
ag254
ag71
ag81
ag101
ag140
ag71
atp2017
Rp2018
sbsbatp2019
Rp2020
sbsbag0
(g23
g2
Ntp2021
Rp2022
(dp2023
g6
g0
(g7
g2
Ntp2024
Rp2025
(dp2026
g11
g0
(g12
g13
(lp2027
g0
(g31
g2
Ntp2028
Rp2029
(dp2030
g6
g0
(g7
g2
Ntp2031
Rp2032
(dp2033
g11
g0
(g12
g13
(lp2034
g41
ag71
ag254
ag254
ag71
ag91
ag101
ag71
ag81
ag120
ag130
ag71
atp2035
Rp2036
sbsbag0
(g31
g2
Ntp2037
Rp2038
(dp2039
g6
g0
(g7
g2
Ntp2040
Rp2041
(dp2042
g11
g0
(g12
g13
(lp2043
g731
ag61
ag393
ag140
ag101
ag61
ag91
ag101
atp2044
Rp2045
sbsbag0
(g31
g2
Ntp2046
Rp2047
(dp2048
g6
g0
(g7
g2
Ntp2049
Rp2050
(dp2051
g11
g0
(g12
g13
(lp2052
g179
ag169
ag51
ag393
ag140
atp2053
Rp2054
sbsbag1631
ag0
(g31
g2
Ntp2055
Rp2056
(dp2057
g6
g0
(g7
g2
Ntp2058
Rp2059
(dp2060
g11
g0
(g12
g13
(lp2061
g81
ag71
ag91
ag71
ag159
ag101
ag130
ag81
atp2062
Rp2063
sbsbag997
ag0
(g31
g2
Ntp2064
Rp2065
(dp2066
g6
g0
(g7
g2
Ntp2067
Rp2068
(dp2069
g11
g0
(g12
g13
(lp2070
g91
ag71
ag101
ag130
ag81
atp2071
Rp2072
sbsbag997
ag322
ag0
(g31
g2
Ntp2073
Rp2074
(dp2075
g6
g0
(g7
g2
Ntp2076
Rp2077
(dp2078
g11
g0
(g12
g13
(lp2079
g310
ag61
ag179
ag71
ag81
atp2080
Rp2081
sbsbag1459
ag0
(g31
g2
Ntp2082
Rp2083
(dp2084
g6
g0
(g7
g2
Ntp2085
Rp2086
(dp2087
g11
g0
(g12
g13
(lp2088
g101
ag130
ag51
ag291
ag140
ag81
atp2089
Rp2090
sbsbag1323
atp2091
Rp2092
sbsbag0
(g23
g2
Ntp2093
Rp2094
(dp2095
g6
g0
(g7
g2
Ntp2096
Rp2097
(dp2098
g11
g0
(g12
g13
(lp2099
g33
ag0
(g31
g2
Ntp2100
Rp2101
(dp2102
g6
g0
(g7
g2
Ntp2103
Rp2104
(dp2105
g11
g0
(g12
g13
(lp2106
g159
ag169
ag91
ag189
ag140
ag179
ag71
ag91
ag101
ag130
ag179
atp2107
Rp2108
sbsbag1567
ag1096
ag907
ag0
(g31
g2
Ntp2109
Rp2110
(dp2111
g6
g0
(g7
g2
Ntp2112
Rp2113
(dp2114
g11
g0
(g12
g13
(lp2115
g244
ag140
ag244
ag71
ag51
ag51
ag61
atp2116
Rp2117
sbsbag670
ag0
(g31
g2
Ntp2118
Rp2119
(dp2120
g6
g0
(g7
g2
Ntp2121
Rp2122
(dp2123
g11
g0
(g12
g13
(lp2124
g159
ag169
ag91
ag81
ag71
ag120
ag130
ag61
ag101
atp2125
Rp2126
sbsbag907
atp2127
Rp2128
sbsbag0
(g23
g2
Ntp2129
Rp2130
(dp2131
g6
g0
(g7
g2
Ntp2132
Rp2133
(dp2134
g11
g0
(g12
g13
(lp2135
g0
(g31
g2
Ntp2136
Rp2137
(dp2138
g6
g0
(g7
g2
Ntp2139
Rp2140
(dp2141
g11
g0
(g12
g13
(lp2142
g759
ag140
ag244
ag61
ag179
ag130
ag81
atp2143
Rp2144
sbsbag506
ag2083
ag1132
ag1314
ag0
(g31
g2
Ntp2145
Rp2146
(dp2147
g6
g0
(g7
g2
Ntp2148
Rp2149
(dp2150
g11
g0
(g12
g13
(lp2151
g159
ag169
ag91
ag81
ag71
ag159
ag101
ag71
ag101
ag130
ag51
atp2152
Rp2153
sbsbag561
ag543
ag634
ag0
(g31
g2
Ntp2154
Rp2155
(dp2156
g6
g0
(g7
g2
Ntp2157
Rp2158
(dp2159
g11
g0
(g12
g13
(lp2160
g244
ag61
ag51
ag140
ag130
ag81
atp2161
Rp2162
sbsbatp2163
Rp2164
sbsbag0
(g23
g2
Ntp2165
Rp2166
(dp2167
g6
g0
(g7
g2
Ntp2168
Rp2169
(dp2170
g11
g0
(g12
g13
(lp2171
g1984
ag1486
ag789
ag0
(g31
g2
Ntp2172
Rp2173
(dp2174
g6
g0
(g7
g2
Ntp2175
Rp2176
(dp2177
g11
g0
(g12
g13
(lp2178
g61
ag254
ag140
ag120
ag130
ag61
ag179
atp2179
Rp2180
sbsbag506
ag1060
ag0
(g31
g2
Ntp2181
Rp2182
(dp2183
g6
g0
(g7
g2
Ntp2184
Rp2185
(dp2186
g11
g0
(g12
g13
(lp2187
g140
ag189
atp2188
Rp2189
sbsbag506
ag1658
atp2190
Rp2191
sbsbag0
(g23
g2
Ntp2192
Rp2193
(dp2194
g6
g0
(g7
g2
Ntp2195
Rp2196
(dp2197
g11
g0
(g12
g13
(lp2198
g588
ag1486
ag652
ag0
(g31
g2
Ntp2199
Rp2200
(dp2201
g6
g0
(g7
g2
Ntp2202
Rp2203
(dp2204
g11
g0
(g12
g13
(lp2205
g91
ag130
ag91
ag159
atp2206
Rp2207
sbsbag997
ag625
ag925
atp2208
Rp2209
sbsbag0
(g23
g2
Ntp2210
Rp2211
(dp2212
g6
g0
(g7
g2
Ntp2213
Rp2214
(dp2215
g11
g0
(g12
g13
(lp2216
g0
(g31
g2
Ntp2217
Rp2218
(dp2219
g6
g0
(g7
g2
Ntp2220
Rp2221
(dp2222
g11
g0
(g12
g13
(lp2223
g41
ag731
ag61
ag81
ag71
ag254
ag254
ag130
ag81
atp2224
Rp2225
sbsbag1677
ag1368
ag997
ag0
(g31
g2
Ntp2226
Rp2227
(dp2228
g6
g0
(g7
g2
Ntp2229
Rp2230
(dp2231
g11
g0
(g12
g13
(lp2232
g254
ag169
ag51
ag71
ag179
atp2233
Rp2234
sbsbag1051
ag479
atp2235
Rp2236
sbsbatp2237
Rp2238
sbsbag0
(g15
g2
Ntp2239
Rp2240
(dp2241
g6
g0
(g7
g2
Ntp2242
Rp2243
(dp2244
g11
g0
(g12
g13
(lp2245
g0
(g23
g2
Ntp2246
Rp2247
(dp2248
g6
g0
(g7
g2
Ntp2249
Rp2250
(dp2251
g11
g0
(g12
g13
(lp2252
g0
(g31
g2
Ntp2253
Rp2254
(dp2255
g6
g0
(g7
g2
Ntp2256
Rp2257
(dp2258
g11
g0
(g12
g13
(lp2259
g595
ag130
ag254
ag254
ag61
ag179
atp2260
Rp2261
sbsbag724
ag1885
ag0
(g31
g2
Ntp2262
Rp2263
(dp2264
g6
g0
(g7
g2
Ntp2265
Rp2266
(dp2267
g11
g0
(g12
g13
(lp2268
g179
ag61
ag81
ag81
ag61
atp2269
Rp2270
sbsbag561
ag461
ag1350
ag0
(g31
g2
Ntp2271
Rp2272
(dp2273
g6
g0
(g7
g2
Ntp2274
Rp2275
(dp2276
g11
g0
(g12
g13
(lp2277
g393
ag254
ag61
ag91
ag189
ag140
ag101
atp2278
Rp2279
sbsbag1831
atp2280
Rp2281
sbsbag0
(g23
g2
Ntp2282
Rp2283
(dp2284
g6
g0
(g7
g2
Ntp2285
Rp2286
(dp2287
g11
g0
(g12
g13
(lp2288
g1395
ag0
(g31
g2
Ntp2289
Rp2290
(dp2291
g6
g0
(g7
g2
Ntp2292
Rp2293
(dp2294
g11
g0
(g12
g13
(lp2295
g244
ag71
ag81
ag101
ag140
ag393
ag130
ag254
ag130
ag179
atp2296
Rp2297
sbsbag607
ag1459
ag688
ag0
(g31
g2
Ntp2298
Rp2299
(dp2300
g6
g0
(g7
g2
Ntp2301
Rp2302
(dp2303
g11
g0
(g12
g13
(lp2304
g101
ag140
ag91
ag159
ag140
ag189
ag130
ag91
ag101
atp2305
Rp2306
sbsbag1186
ag1540
ag1441
ag0
(g31
g2
Ntp2307
Rp2308
(dp2309
g6
g0
(g7
g2
Ntp2310
Rp2311
(dp2312
g11
g0
(g12
g13
(lp2313
g291
ag130
ag51
ag130
ag81
atp2314
Rp2315
sbsbag497
ag1993
ag201
ag1033
ag1459
ag1903
atp2316
Rp2317
sbsbag0
(g23
g2
Ntp2318
Rp2319
(dp2320
g6
g0
(g7
g2
Ntp2321
Rp2322
(dp2323
g11
g0
(g12
g13
(lp2324
g2254
ag0
(g31
g2
Ntp2325
Rp2326
(dp2327
g6
g0
(g7
g2
Ntp2328
Rp2329
(dp2330
g11
g0
(g12
g13
(lp2331
g71
ag421
ag71
ag101
atp2332
Rp2333
sbsbag1414
ag843
ag852
ag961
ag1441
ag543
atp2334
Rp2335
sbsbag0
(g23
g2
Ntp2336
Rp2337
(dp2338
g6
g0
(g7
g2
Ntp2339
Rp2340
(dp2341
g11
g0
(g12
g13
(lp2342
g0
(g31
g2
Ntp2343
Rp2344
(dp2345
g6
g0
(g7
g2
Ntp2346
Rp2347
(dp2348
g11
g0
(g12
g13
(lp2349
g449
ag130
ag81
ag291
ag71
ag91
ag189
ag140
ag81
ag81
ag71
atp2350
Rp2351
sbsbag497
ag0
(g31
g2
Ntp2352
Rp2353
(dp2354
g6
g0
(g7
g2
Ntp2355
Rp2356
(dp2357
g11
g0
(g12
g13
(lp2358
g254
ag61
ag159
ag140
ag91
ag140
ag61
atp2359
Rp2360
sbsbag1414
ag1677
ag237
atp2361
Rp2362
sbsbag0
(g23
g2
Ntp2363
Rp2364
(dp2365
g6
g0
(g7
g2
Ntp2366
Rp2367
(dp2368
g11
g0
(g12
g13
(lp2369
g0
(g31
g2
Ntp2370
Rp2371
(dp2372
g6
g0
(g7
g2
Ntp2373
Rp2374
(dp2375
g11
g0
(g12
g13
(lp2376
g595
ag61
ag179
atp2377
Rp2378
sbsbag1006
ag0
(g31
g2
Ntp2379
Rp2380
(dp2381
g6
g0
(g7
g2
Ntp2382
Rp2383
(dp2384
g11
g0
(g12
g13
(lp2385
g61
ag51
ag159
ag130
atp2386
Rp2387
sbsbag0
(g31
g2
Ntp2388
Rp2389
(dp2390
g6
g0
(g7
g2
Ntp2391
Rp2392
(dp2393
g11
g0
(g12
g13
(lp2394
g101
ag71
ag179
ag291
ag130
ag81
atp2395
Rp2396
sbsbag359
ag661
ag1377
ag1177
ag1123
ag789
atp2397
Rp2398
sbsbag0
(g23
g2
Ntp2399
Rp2400
(dp2401
g6
g0
(g7
g2
Ntp2402
Rp2403
(dp2404
g11
g0
(g12
g13
(lp2405
g0
(g31
g2
Ntp2406
Rp2407
(dp2408
g6
g0
(g7
g2
Ntp2409
Rp2410
(dp2411
g11
g0
(g12
g13
(lp2412
g0
(g39
g2
Ntp2413
Rp2414
(dp2415
g6
g0
(g7
g2
Ntp2416
Rp2417
(dp2418
g11
g0
(g12
g13
(lp2419
S'I'
p2420
atp2421
Rp2422
sbsbag91
ag101
ag71
ag421
ag71
ag51
atp2423
Rp2424
sbsbag303
ag1486
ag1223
ag715
ag0
(g31
g2
Ntp2425
Rp2426
(dp2427
g6
g0
(g7
g2
Ntp2428
Rp2429
(dp2430
g11
g0
(g12
g13
(lp2431
g291
ag254
ag61
ag159
ag71
ag51
ag61
ag101
atp2432
Rp2433
sbsbatp2434
Rp2435
sbsbag0
(g23
g2
Ntp2436
Rp2437
(dp2438
g6
g0
(g7
g2
Ntp2439
Rp2440
(dp2441
g11
g0
(g12
g13
(lp2442
g0
(g31
g2
Ntp2443
Rp2444
(dp2445
g6
g0
(g7
g2
Ntp2446
Rp2447
(dp2448
g11
g0
(g12
g13
(lp2449
g1810
ag130
ag140
ag81
atp2450
Rp2451
sbsbag816
ag0
(g31
g2
Ntp2452
Rp2453
(dp2454
g6
g0
(g7
g2
Ntp2455
Rp2456
(dp2457
g11
g0
(g12
g13
(lp2458
g291
ag130
ag51
ag130
ag81
atp2459
Rp2460
sbsbag1677
ag1504
ag1594
atp2461
Rp2462
sbsbag0
(g23
g2
Ntp2463
Rp2464
(dp2465
g6
g0
(g7
g2
Ntp2466
Rp2467
(dp2468
g11
g0
(g12
g13
(lp2469
g0
(g31
g2
Ntp2470
Rp2471
(dp2472
g6
g0
(g7
g2
Ntp2473
Rp2474
(dp2475
g11
g0
(g12
g13
(lp2476
g2414
ag91
atp2477
Rp2478
sbsbag570
ag1414
ag113
ag2426
ag2272
atp2479
Rp2480
sbsbag0
(g23
g2
Ntp2481
Rp2482
(dp2483
g6
g0
(g7
g2
Ntp2484
Rp2485
(dp2486
g11
g0
(g12
g13
(lp2487
g1803
ag113
ag1323
ag0
(g31
g2
Ntp2488
Rp2489
(dp2490
g6
g0
(g7
g2
Ntp2491
Rp2492
(dp2493
g11
g0
(g12
g13
(lp2494
g91
ag140
ag81
ag140
atp2495
Rp2496
sbsbag2326
ag405
ag1414
atp2497
Rp2498
sbsbatp2499
Rp2500
sbsbag0
(g15
g2
Ntp2501
Rp2502
(dp2503
g6
g0
(g7
g2
Ntp2504
Rp2505
(dp2506
g11
g0
(g12
g13
(lp2507
g0
(g23
g2
Ntp2508
Rp2509
(dp2510
g6
g0
(g7
g2
Ntp2511
Rp2512
(dp2513
g11
g0
(g12
g13
(lp2514
g1803
ag661
ag1549
ag843
ag852
ag970
ag1168
atp2515
Rp2516
sbsbag0
(g23
g2
Ntp2517
Rp2518
(dp2519
g6
g0
(g7
g2
Ntp2520
Rp2521
(dp2522
g11
g0
(g12
g13
(lp2523
g1803
ag0
(g31
g2
Ntp2524
Rp2525
(dp2526
g6
g0
(g7
g2
Ntp2527
Rp2528
(dp2529
g11
g0
(g12
g13
(lp2530
g189
ag169
ag254
ag169
ag51
atp2531
Rp2532
sbsbag0
(g31
g2
Ntp2533
Rp2534
(dp2535
g6
g0
(g7
g2
Ntp2536
Rp2537
(dp2538
g11
g0
(g12
g13
(lp2539
g254
ag71
ag169
atp2540
Rp2541
sbsbag1323
ag1159
ag1731
ag1114
ag916
ag1504
ag634
atp2542
Rp2543
sbsbag0
(g23
g2
Ntp2544
Rp2545
(dp2546
g6
g0
(g7
g2
Ntp2547
Rp2548
(dp2549
g11
g0
(g12
g13
(lp2550
g2371
ag405
ag1767
ag1677
ag807
ag697
atp2551
Rp2552
sbsbag0
(g23
g2
Ntp2553
Rp2554
(dp2555
g6
g0
(g7
g2
Ntp2556
Rp2557
(dp2558
g11
g0
(g12
g13
(lp2559
g2371
ag1966
ag561
ag1350
ag1159
ag543
atp2560
Rp2561
sbsbag0
(g23
g2
Ntp2562
Rp2563
(dp2564
g6
g0
(g7
g2
Ntp2565
Rp2566
(dp2567
g11
g0
(g12
g13
(lp2568
g888
ag1159
ag414
ag2326
ag1350
ag405
ag1649
atp2569
Rp2570
sbsbag0
(g23
g2
Ntp2571
Rp2572
(dp2573
g6
g0
(g7
g2
Ntp2574
Rp2575
(dp2576
g11
g0
(g12
g13
(lp2577
g2407
ag497
ag386
ag0
(g31
g2
Ntp2578
Rp2579
(dp2580
g6
g0
(g7
g2
Ntp2581
Rp2582
(dp2583
g11
g0
(g12
g13
(lp2584
g254
ag140
ag421
ag130
ag254
ag61
atp2585
Rp2586
sbsbag997
ag1885
ag2083
ag0
(g31
g2
Ntp2587
Rp2588
(dp2589
g6
g0
(g7
g2
Ntp2590
Rp2591
(dp2592
g11
g0
(g12
g13
(lp2593
g244
ag71
ag91
ag71
ag91
ag61
ag101
ag140
ag81
atp2594
Rp2595
sbsbag843
ag852
atp2596
Rp2597
sbsbag0
(g23
g2
Ntp2598
Rp2599
(dp2600
g6
g0
(g7
g2
Ntp2601
Rp2602
(dp2603
g11
g0
(g12
g13
(lp2604
g442
ag1767
ag0
(g31
g2
Ntp2605
Rp2606
(dp2607
g6
g0
(g7
g2
Ntp2608
Rp2609
(dp2610
g11
g0
(g12
g13
(lp2611
g169
ag189
ag140
ag169
atp2612
Rp2613
sbsbag1468
ag843
ag852
ag1993
ag2182
ag807
ag113
ag961
atp2614
Rp2615
sbsbag0
(g23
g2
Ntp2616
Rp2617
(dp2618
g6
g0
(g7
g2
Ntp2619
Rp2620
(dp2621
g11
g0
(g12
g13
(lp2622
g33
ag1177
ag1504
ag1540
ag113
ag2002
atp2623
Rp2624
sbsbag0
(g23
g2
Ntp2625
Rp2626
(dp2627
g6
g0
(g7
g2
Ntp2628
Rp2629
(dp2630
g11
g0
(g12
g13
(lp2631
g33
ag1051
ag1132
ag771
ag359
ag916
atp2632
Rp2633
sbsbatp2634
Rp2635
sbsbag0
(g15
g2
Ntp2636
Rp2637
(dp2638
g6
g0
(g7
g2
Ntp2639
Rp2640
(dp2641
g11
g0
(g12
g13
(lp2642
g0
(g23
g2
Ntp2643
Rp2644
(dp2645
g6
g0
(g7
g2
Ntp2646
Rp2647
(dp2648
g11
g0
(g12
g13
(lp2649
g834
ag870
ag1822
ag0
(g31
g2
Ntp2650
Rp2651
(dp2652
g6
g0
(g7
g2
Ntp2653
Rp2654
(dp2655
g11
g0
(g12
g13
(lp2656
g61
ag130
ag421
ag130
ag71
atp2657
Rp2658
sbsbag1531
ag2389
ag0
(g31
g2
Ntp2659
Rp2660
(dp2661
g6
g0
(g7
g2
Ntp2662
Rp2663
(dp2664
g11
g0
(g12
g13
(lp2665
g91
ag130
ag254
ag254
ag61
atp2666
Rp2667
sbsbag2272
ag715
atp2668
Rp2669
sbsbag0
(g23
g2
Ntp2670
Rp2671
(dp2672
g6
g0
(g7
g2
Ntp2673
Rp2674
(dp2675
g11
g0
(g12
g13
(lp2676
g2344
ag1232
ag771
ag228
ag284
ag0
(g31
g2
Ntp2677
Rp2678
(dp2679
g6
g0
(g7
g2
Ntp2680
Rp2681
(dp2682
g11
g0
(g12
g13
(lp2683
g81
ag159
ag71
ag254
ag71
ag51
ag140
ag81
ag120
ag130
ag71
atp2684
Rp2685
sbsbag1822
ag1767
ag237
ag0
(g31
g2
Ntp2686
Rp2687
(dp2688
g6
g0
(g7
g2
Ntp2689
Rp2690
(dp2691
g11
g0
(g12
g13
(lp2692
g101
ag71
ag254
ag254
ag130
ag81
atp2693
Rp2694
sbsbag561
ag1649
ag1368
ag470
ag907
ag861
atp2695
Rp2696
sbsbag0
(g23
g2
Ntp2697
Rp2698
(dp2699
g6
g0
(g7
g2
Ntp2700
Rp2701
(dp2702
g11
g0
(g12
g13
(lp2703
g2029
ag1677
ag724
ag266
atp2704
Rp2705
sbsbag0
(g23
g2
Ntp2706
Rp2707
(dp2708
g6
g0
(g7
g2
Ntp2709
Rp2710
(dp2711
g11
g0
(g12
g13
(lp2712
g442
ag1486
ag2660
ag0
(g31
g2
Ntp2713
Rp2714
(dp2715
g6
g0
(g7
g2
Ntp2716
Rp2717
(dp2718
g11
g0
(g12
g13
(lp2719
g244
ag130
ag254
ag291
ag130
ag101
ag61
ag101
ag71
atp2720
Rp2721
sbsbag0
(g31
g2
Ntp2722
Rp2723
(dp2724
g6
g0
(g7
g2
Ntp2725
Rp2726
(dp2727
g11
g0
(g12
g13
(lp2728
g189
ag140
ag421
ag91
ag140
ag81
ag81
ag140
ag179
atp2729
Rp2730
sbsbag470
ag1241
ag652
ag0
(g31
g2
Ntp2731
Rp2732
(dp2733
g6
g0
(g7
g2
Ntp2734
Rp2735
(dp2736
g11
g0
(g12
g13
(lp2737
g51
ag140
ag81
ag130
ag81
atp2738
Rp2739
sbsbatp2740
Rp2741
sbsbag0
(g23
g2
Ntp2742
Rp2743
(dp2744
g6
g0
(g7
g2
Ntp2745
Rp2746
(dp2747
g11
g0
(g12
g13
(lp2748
g1803
ag2155
ag2083
ag228
ag543
ag284
atp2749
Rp2750
sbsbag0
(g23
g2
Ntp2751
Rp2752
(dp2753
g6
g0
(g7
g2
Ntp2754
Rp2755
(dp2756
g11
g0
(g12
g13
(lp2757
g1204
ag1305
ag0
(g31
g2
Ntp2758
Rp2759
(dp2760
g6
g0
(g7
g2
Ntp2761
Rp2762
(dp2763
g11
g0
(g12
g13
(lp2764
g140
ag291
ag81
ag130
ag179
atp2765
Rp2766
sbsbag652
ag561
ag386
ag0
(g31
g2
Ntp2767
Rp2768
(dp2769
g6
g0
(g7
g2
Ntp2770
Rp2771
(dp2772
g11
g0
(g12
g13
(lp2773
g71
ag101
atp2774
Rp2775
sbsbag688
ag997
ag1549
atp2776
Rp2777
sbsbag0
(g23
g2
Ntp2778
Rp2779
(dp2780
g6
g0
(g7
g2
Ntp2781
Rp2782
(dp2783
g11
g0
(g12
g13
(lp2784
g2344
ag2389
ag2525
ag228
ag570
ag0
(g31
g2
Ntp2785
Rp2786
(dp2787
g6
g0
(g7
g2
Ntp2788
Rp2789
(dp2790
g11
g0
(g12
g13
(lp2791
g291
ag731
ag61
ag51
ag71
ag101
ag51
ag61
atp2792
Rp2793
sbsbatp2794
Rp2795
sbsbag0
(g23
g2
Ntp2796
Rp2797
(dp2798
g6
g0
(g7
g2
Ntp2799
Rp2800
(dp2801
g11
g0
(g12
g13
(lp2802
g2254
ag1993
ag1948
ag1305
ag1486
ag2272
atp2803
Rp2804
sbsbag0
(g23
g2
Ntp2805
Rp2806
(dp2807
g6
g0
(g7
g2
Ntp2808
Rp2809
(dp2810
g11
g0
(g12
g13
(lp2811
g888
ag1468
ag816
ag2786
atp2812
Rp2813
sbsbag0
(g23
g2
Ntp2814
Rp2815
(dp2816
g6
g0
(g7
g2
Ntp2817
Rp2818
(dp2819
g11
g0
(g12
g13
(lp2820
g2254
ag1677
ag1767
ag1259
atp2821
Rp2822
sbsbag0
(g23
g2
Ntp2823
Rp2824
(dp2825
g6
g0
(g7
g2
Ntp2826
Rp2827
(dp2828
g11
g0
(g12
g13
(lp2829
g1803
ag1323
ag1993
ag488
ag2155
ag552
atp2830
Rp2831
sbsbag0
(g23
g2
Ntp2832
Rp2833
(dp2834
g6
g0
(g7
g2
Ntp2835
Rp2836
(dp2837
g11
g0
(g12
g13
(lp2838
g2344
ag0
(g31
g2
Ntp2839
Rp2840
(dp2841
g6
g0
(g7
g2
Ntp2842
Rp2843
(dp2844
g11
g0
(g12
g13
(lp2845
g291
ag169
ag101
ag71
ag91
ag101
ag140
atp2846
Rp2847
sbsbatp2848
Rp2849
sbsbatp2850
Rp2851
sbsbag0
(g15
g2
Ntp2852
Rp2853
(dp2854
g6
g0
(g7
g2
Ntp2855
Rp2856
(dp2857
g11
g0
(g12
g13
(lp2858
g0
(g23
g2
Ntp2859
Rp2860
(dp2861
g6
g0
(g7
g2
Ntp2862
Rp2863
(dp2864
g11
g0
(g12
g13
(lp2865
g340
ag1531
ag625
ag414
atp2866
Rp2867
sbsbag0
(g23
g2
Ntp2868
Rp2869
(dp2870
g6
g0
(g7
g2
Ntp2871
Rp2872
(dp2873
g11
g0
(g12
g13
(lp2874
g2471
ag1060
ag1522
ag688
ag1159
ag2525
ag1015
ag1858
ag2272
ag1305
atp2875
Rp2876
sbsbag0
(g23
g2
Ntp2877
Rp2878
(dp2879
g6
g0
(g7
g2
Ntp2880
Rp2881
(dp2882
g11
g0
(g12
g13
(lp2883
g1204
ag405
ag661
ag789
ag2326
ag0
(g31
g2
Ntp2884
Rp2885
(dp2886
g6
g0
(g7
g2
Ntp2887
Rp2888
(dp2889
g11
g0
(g12
g13
(lp2890
g140
ag61
ag159
ag130
ag254
ag140
ag81
atp2891
Rp2892
sbsbatp2893
Rp2894
sbsbag0
(g23
g2
Ntp2895
Rp2896
(dp2897
g6
g0
(g7
g2
Ntp2898
Rp2899
(dp2900
g11
g0
(g12
g13
(lp2901
g2407
ag1051
ag2326
ag1658
ag715
ag303
atp2902
Rp2903
sbsbag0
(g23
g2
Ntp2904
Rp2905
(dp2906
g6
g0
(g7
g2
Ntp2907
Rp2908
(dp2909
g11
g0
(g12
g13
(lp2910
g0
(g31
g2
Ntp2911
Rp2912
(dp2913
g6
g0
(g7
g2
Ntp2914
Rp2915
(dp2916
g11
g0
(g12
g13
(lp2917
g0
(g39
g2
Ntp2918
Rp2919
(dp2920
g6
g0
(g7
g2
Ntp2921
Rp2922
(dp2923
g11
g0
(g12
g13
(lp2924
S'F'
p2925
atp2926
Rp2927
sbsbag130
ag81
ag159
ag71
atp2928
Rp2929
sbsbag570
ag1785
ag0
(g31
g2
Ntp2930
Rp2931
(dp2932
g6
g0
(g7
g2
Ntp2933
Rp2934
(dp2935
g11
g0
(g12
g13
(lp2936
g91
ag140
ag393
ag731
atp2937
Rp2938
sbsbag228
ag2588
ag1350
ag870
ag1831
atp2939
Rp2940
sbsbag0
(g23
g2
Ntp2941
Rp2942
(dp2943
g6
g0
(g7
g2
Ntp2944
Rp2945
(dp2946
g11
g0
(g12
g13
(lp2947
g2344
ag552
ag488
ag0
(g31
g2
Ntp2948
Rp2949
(dp2950
g6
g0
(g7
g2
Ntp2951
Rp2952
(dp2953
g11
g0
(g12
g13
(lp2954
g1665
ag130
ag81
ag101
ag169
atp2955
Rp2956
sbsbag1459
ag1785
ag1822
ag2389
ag2002
atp2957
Rp2958
sbsbag0
(g23
g2
Ntp2959
Rp2960
(dp2961
g6
g0
(g7
g2
Ntp2962
Rp2963
(dp2964
g11
g0
(g12
g13
(lp2965
g33
ag2119
ag359
ag2732
ag561
ag2101
atp2966
Rp2967
sbsbag0
(g23
g2
Ntp2968
Rp2969
(dp2970
g6
g0
(g7
g2
Ntp2971
Rp2972
(dp2973
g11
g0
(g12
g13
(lp2974
g1984
ag997
ag2588
ag0
(g31
g2
Ntp2975
Rp2976
(dp2977
g6
g0
(g7
g2
Ntp2978
Rp2979
(dp2980
g11
g0
(g12
g13
(lp2981
g254
ag61
ag159
ag130
ag81
atp2982
Rp2983
sbsbag2326
ag479
ag1567
atp2984
Rp2985
sbsbag0
(g23
g2
Ntp2986
Rp2987
(dp2988
g6
g0
(g7
g2
Ntp2989
Rp2990
(dp2991
g11
g0
(g12
g13
(lp2992
g752
ag1567
ag1576
ag1585
ag1132
ag386
ag670
ag970
ag997
ag1594
ag1168
ag1603
ag1612
ag1803
ag1159
ag1350
ag113
ag2660
ag1069
ag1858
atp2993
Rp2994
sbsbag0
(g23
g2
Ntp2995
Rp2996
(dp2997
g6
g0
(g7
g2
Ntp2998
Rp2999
(dp3000
g11
g0
(g12
g13
(lp3001
g1695
ag303
ag1006
ag1531
ag2732
ag0
(g31
g2
Ntp3002
Rp3003
(dp3004
g6
g0
(g7
g2
Ntp3005
Rp3006
(dp3007
g11
g0
(g12
g13
(lp3008
g393
ag140
ag393
ag71
ag91
ag189
ag130
ag179
atp3009
Rp3010
sbsbag561
ag870
ag2732
ag952
atp3011
Rp3012
sbsbag0
(g23
g2
Ntp3013
Rp3014
(dp3015
g6
g0
(g7
g2
Ntp3016
Rp3017
(dp3018
g11
g0
(g12
g13
(lp3019
g588
ag1296
ag634
ag1132
ag2227
ag0
(g31
g2
Ntp3020
Rp3021
(dp3022
g6
g0
(g7
g2
Ntp3023
Rp3024
(dp3025
g11
g0
(g12
g13
(lp3026
g244
ag61
ag51
ag140
ag130
ag81
atp3027
Rp3028
sbsbag1531
ag1858
ag634
ag405
atp3029
Rp3030
sbsbag0
(g23
g2
Ntp3031
Rp3032
(dp3033
g6
g0
(g7
g2
Ntp3034
Rp3035
(dp3036
g11
g0
(g12
g13
(lp3037
g1984
ag870
ag266
ag2534
ag843
ag852
ag2002
ag1223
ag652
ag843
ag852
atp3038
Rp3039
sbsbatp3040
Rp3041
sbsbag0
(g15
g2
Ntp3042
Rp3043
(dp3044
g6
g0
(g7
g2
Ntp3045
Rp3046
(dp3047
g11
g0
(g12
g13
(lp3048
g0
(g23
g2
Ntp3049
Rp3050
(dp3051
g6
g0
(g7
g2
Ntp3052
Rp3053
(dp3054
g11
g0
(g12
g13
(lp3055
g2471
ag1858
ag1414
ag907
ag1141
ag1105
ag2786
atp3056
Rp3057
sbsbag0
(g23
g2
Ntp3058
Rp3059
(dp3060
g6
g0
(g7
g2
Ntp3061
Rp3062
(dp3063
g11
g0
(g12
g13
(lp3064
g1695
ag228
ag1658
ag1132
ag488
ag1858
ag461
ag1677
ag1159
ag1549
atp3065
Rp3066
sbsbag0
(g23
g2
Ntp3067
Rp3068
(dp3069
g6
g0
(g7
g2
Ntp3070
Rp3071
(dp3072
g11
g0
(g12
g13
(lp3073
g834
ag2119
ag552
ag1731
ag1831
ag152
atp3074
Rp3075
sbsbag0
(g23
g2
Ntp3076
Rp3077
(dp3078
g6
g0
(g7
g2
Ntp3079
Rp3080
(dp3081
g11
g0
(g12
g13
(lp3082
g0
(g31
g2
Ntp3083
Rp3084
(dp3085
g6
g0
(g7
g2
Ntp3086
Rp3087
(dp3088
g11
g0
(g12
g13
(lp3089
g531
ag130
ag179
atp3090
Rp3091
sbsbag0
(g31
g2
Ntp3092
Rp3093
(dp3094
g6
g0
(g7
g2
Ntp3095
Rp3096
(dp3097
g11
g0
(g12
g13
(lp3098
g81
ag169
ag159
ag140
ag140
ag81
atp3099
Rp3100
sbsbag0
(g31
g2
Ntp3101
Rp3102
(dp3103
g6
g0
(g7
g2
Ntp3104
Rp3105
(dp3106
g11
g0
(g12
g13
(lp3107
g91
ag61
ag101
ag169
ag120
ag130
ag71
atp3108
Rp3109
sbsbag0
(g31
g2
Ntp3110
Rp3111
(dp3112
g6
g0
(g7
g2
Ntp3113
Rp3114
(dp3115
g11
g0
(g12
g13
(lp3116
g291
ag71
ag91
ag61
ag101
ag140
ag393
ag130
ag81
atp3117
Rp3118
sbsbag997
ag0
(g31
g2
Ntp3119
Rp3120
(dp3121
g6
g0
(g7
g2
Ntp3122
Rp3123
(dp3124
g11
g0
(g12
g13
(lp3125
g179
ag61
ag421
ag91
ag140
ag81
atp3126
Rp3127
sbsbag0
(g31
g2
Ntp3128
Rp3129
(dp3130
g6
g0
(g7
g2
Ntp3131
Rp3132
(dp3133
g11
g0
(g12
g13
(lp3134
g189
ag140
ag81
atp3135
Rp3136
sbsbag0
(g31
g2
Ntp3137
Rp3138
(dp3139
g6
g0
(g7
g2
Ntp3140
Rp3141
(dp3142
g11
g0
(g12
g13
(lp3143
g291
ag61
ag51
ag101
ag130
ag51
ag140
ag71
ag91
ag101
atp3144
Rp3145
sbsbag0
(g31
g2
Ntp3146
Rp3147
(dp3148
g6
g0
(g7
g2
Ntp3149
Rp3150
(dp3151
g11
g0
(g12
g13
(lp3152
g179
ag169
ag91
ag101
ag71
ag81
atp3153
Rp3154
sbsbag0
(g31
g2
Ntp3155
Rp3156
(dp3157
g6
g0
(g7
g2
Ntp3158
Rp3159
(dp3160
g11
g0
(g12
g13
(lp3161
g91
ag61
ag81
ag159
ag71
ag101
ag130
ag51
atp3162
Rp3163
sbsbag0
(g31
g2
Ntp3164
Rp3165
(dp3166
g6
g0
(g7
g2
Ntp3167
Rp3168
(dp3169
g11
g0
(g12
g13
(lp3170
g51
ag140
ag189
ag140
ag159
ag130
ag254
ag130
ag81
atp3171
Rp3172
sbsbag0
(g31
g2
Ntp3173
Rp3174
(dp3175
g6
g0
(g7
g2
Ntp3176
Rp3177
(dp3178
g11
g0
(g12
g13
(lp3179
g179
ag130
ag81
atp3180
Rp3181
sbsbatp3182
Rp3183
sbsbag0
(g23
g2
Ntp3184
Rp3185
(dp3186
g6
g0
(g7
g2
Ntp3187
Rp3188
(dp3189
g11
g0
(g12
g13
(lp3190
g442
ag1159
ag1368
ag201
atp3191
Rp3192
sbsbag0
(g23
g2
Ntp3193
Rp3194
(dp3195
g6
g0
(g7
g2
Ntp3196
Rp3197
(dp3198
g11
g0
(g12
g13
(lp3199
g2218
ag543
ag228
ag1305
ag1677
ag461
atp3200
Rp3201
sbsbag0
(g23
g2
Ntp3202
Rp3203
(dp3204
g6
g0
(g7
g2
Ntp3205
Rp3206
(dp3207
g11
g0
(g12
g13
(lp3208
g524
ag113
ag368
ag925
atp3209
Rp3210
sbsbag0
(g23
g2
Ntp3211
Rp3212
(dp3213
g6
g0
(g7
g2
Ntp3214
Rp3215
(dp3216
g11
g0
(g12
g13
(lp3217
g2029
ag771
ag0
(g31
g2
Ntp3218
Rp3219
(dp3220
g6
g0
(g7
g2
Ntp3221
Rp3222
(dp3223
g11
g0
(g12
g13
(lp3224
g189
ag169
ag254
ag169
ag51
atp3225
Rp3226
sbsbag497
ag907
ag1767
ag0
(g31
g2
Ntp3227
Rp3228
(dp3229
g6
g0
(g7
g2
Ntp3230
Rp3231
(dp3232
g11
g0
(g12
g13
(lp3233
g244
ag71
ag254
atp3234
Rp3235
sbsbag1468
ag1858
ag706
atp3236
Rp3237
sbsbag0
(g23
g2
Ntp3238
Rp3239
(dp3240
g6
g0
(g7
g2
Ntp3241
Rp3242
(dp3243
g11
g0
(g12
g13
(lp3244
g1722
ag870
ag2453
ag2759
ag359
ag952
ag1658
ag543
ag1459
atp3245
Rp3246
sbsbag0
(g23
g2
Ntp3247
Rp3248
(dp3249
g6
g0
(g7
g2
Ntp3250
Rp3251
(dp3252
g11
g0
(g12
g13
(lp3253
g1087
ag561
ag1594
ag2263
ag0
(g31
g2
Ntp3254
Rp3255
(dp3256
g6
g0
(g7
g2
Ntp3257
Rp3258
(dp3259
g11
g0
(g12
g13
(lp3260
g421
ag51
ag61
ag244
ag140
ag189
ag61
atp3261
Rp3262
sbsbag497
ag2732
atp3263
Rp3264
sbsbag0
(g23
g2
Ntp3265
Rp3266
(dp3267
g6
g0
(g7
g2
Ntp3268
Rp3269
(dp3270
g11
g0
(g12
g13
(lp3271
g219
ag0
(g31
g2
Ntp3272
Rp3273
(dp3274
g6
g0
(g7
g2
Ntp3275
Rp3276
(dp3277
g11
g0
(g12
g13
(lp3278
g421
ag51
ag61
ag244
ag140
ag189
ag61
atp3279
Rp3280
sbsbag1567
ag1677
ag1867
ag0
(g31
g2
Ntp3281
Rp3282
(dp3283
g6
g0
(g7
g2
Ntp3284
Rp3285
(dp3286
g11
g0
(g12
g13
(lp3287
g291
ag169
ag81
ag130
ag71
ag51
ag71
atp3288
Rp3289
sbsbag488
ag1141
ag1024
ag2606
ag359
ag2011
ag1767
ag2525
ag359
ag1350
atp3290
Rp3291
sbsbag0
(g23
g2
Ntp3292
Rp3293
(dp3294
g6
g0
(g7
g2
Ntp3295
Rp3296
(dp3297
g11
g0
(g12
g13
(lp3298
g1277
ag907
ag2723
ag616
ag1486
ag1051
ag1223
atp3299
Rp3300
sbsbag0
(g23
g2
Ntp3301
Rp3302
(dp3303
g6
g0
(g7
g2
Ntp3304
Rp3305
(dp3306
g11
g0
(g12
g13
(lp3307
g1722
ag2326
ag670
ag1159
ag771
ag807
ag543
ag715
ag907
ag1006
atp3308
Rp3309
sbsbag0
(g23
g2
Ntp3310
Rp3311
(dp3312
g6
g0
(g7
g2
Ntp3313
Rp3314
(dp3315
g11
g0
(g12
g13
(lp3316
g2254
ag1549
ag0
(g31
g2
Ntp3317
Rp3318
(dp3319
g6
g0
(g7
g2
Ntp3320
Rp3321
(dp3322
g11
g0
(g12
g13
(lp3323
g179
ag71
ag101
ag130
ag81
atp3324
Rp3325
sbsbag2786
ag1159
ag1305
ag0
(g31
g2
Ntp3326
Rp3327
(dp3328
g6
g0
(g7
g2
Ntp3329
Rp3330
(dp3331
g11
g0
(g12
g13
(lp3332
g91
ag71
ag159
atp3333
Rp3334
sbsbag1177
ag807
ag1822
atp3335
Rp3336
sbsbag0
(g23
g2
Ntp3337
Rp3338
(dp3339
g6
g0
(g7
g2
Ntp3340
Rp3341
(dp3342
g11
g0
(g12
g13
(lp3343
g752
ag1132
ag2389
ag1060
atp3344
Rp3345
sbsbatp3346
Rp3347
sbsbag0
(g15
g2
Ntp3348
Rp3349
(dp3350
g6
g0
(g7
g2
Ntp3351
Rp3352
(dp3353
g11
g0
(g12
g13
(lp3354
g0
(g23
g2
Ntp3355
Rp3356
(dp3357
g6
g0
(g7
g2
Ntp3358
Rp3359
(dp3360
g11
g0
(g12
g13
(lp3361
g1087
ag2227
ag0
(g31
g2
Ntp3362
Rp3363
(dp3364
g6
g0
(g7
g2
Ntp3365
Rp3366
(dp3367
g11
g0
(g12
g13
(lp3368
g179
ag61
ag421
ag91
ag61
atp3369
Rp3370
sbsbag0
(g31
g2
Ntp3371
Rp3372
(dp3373
g6
g0
(g7
g2
Ntp3374
Rp3375
(dp3376
g11
g0
(g12
g13
(lp3377
g291
ag130
ag254
ag244
ag140
ag91
ag61
ag51
atp3378
Rp3379
sbsbag1132
ag1840
ag643
ag570
ag1531
ag2083
atp3380
Rp3381
sbsbag0
(g23
g2
Ntp3382
Rp3383
(dp3384
g6
g0
(g7
g2
Ntp3385
Rp3386
(dp3387
g11
g0
(g12
g13
(lp3388
g588
ag1223
ag3219
ag1631
ag907
ag237
ag1432
ag2426
ag359
ag1223
atp3389
Rp3390
sbsbag0
(g23
g2
Ntp3391
Rp3392
(dp3393
g6
g0
(g7
g2
Ntp3394
Rp3395
(dp3396
g11
g0
(g12
g13
(lp3397
g588
ag2786
ag1024
ag1731
ag561
ag3255
atp3398
Rp3399
sbsbag0
(g23
g2
Ntp3400
Rp3401
(dp3402
g6
g0
(g7
g2
Ntp3403
Rp3404
(dp3405
g11
g0
(g12
g13
(lp3406
g442
ag1649
ag1186
ag916
ag2083
ag0
(g31
g2
Ntp3407
Rp3408
(dp3409
g6
g0
(g7
g2
Ntp3410
Rp3411
(dp3412
g11
g0
(g12
g13
(lp3413
g101
ag71
ag179
ag291
ag169
ag51
atp3414
Rp3415
sbsbag715
ag688
ag488
ag543
atp3416
Rp3417
sbsbag0
(g23
g2
Ntp3418
Rp3419
(dp3420
g6
g0
(g7
g2
Ntp3421
Rp3422
(dp3423
g11
g0
(g12
g13
(lp3424
g2218
ag2353
ag470
ag1531
ag2786
ag570
atp3425
Rp3426
sbsbag0
(g23
g2
Ntp3427
Rp3428
(dp3429
g6
g0
(g7
g2
Ntp3430
Rp3431
(dp3432
g11
g0
(g12
g13
(lp3433
g442
ag670
ag2263
ag1785
ag1677
ag1069
ag643
ag1749
ag843
ag852
ag771
atp3434
Rp3435
sbsbag0
(g23
g2
Ntp3436
Rp3437
(dp3438
g6
g0
(g7
g2
Ntp3439
Rp3440
(dp3441
g11
g0
(g12
g13
(lp3442
g1087
ag1867
ag1223
ag201
atp3443
Rp3444
sbsbag0
(g23
g2
Ntp3445
Rp3446
(dp3447
g6
g0
(g7
g2
Ntp3448
Rp3449
(dp3450
g11
g0
(g12
g13
(lp3451
g524
ag1858
ag771
ag543
ag2083
ag0
(g31
g2
Ntp3452
Rp3453
(dp3454
g6
g0
(g7
g2
Ntp3455
Rp3456
(dp3457
g11
g0
(g12
g13
(lp3458
g130
ag254
ag254
ag61
ag179
ag159
ag169
ag51
ag291
ag71
ag51
atp3459
Rp3460
sbsbag843
ag852
ag386
ag634
ag688
atp3461
Rp3462
sbsbag0
(g23
g2
Ntp3463
Rp3464
(dp3465
g6
g0
(g7
g2
Ntp3466
Rp3467
(dp3468
g11
g0
(g12
g13
(lp3469
g1087
ag2660
ag2687
ag1631
ag1831
ag1314
ag643
ag2723
ag152
ag414
atp3470
Rp3471
sbsbag0
(g23
g2
Ntp3472
Rp3473
(dp3474
g6
g0
(g7
g2
Ntp3475
Rp3476
(dp3477
g11
g0
(g12
g13
(lp3478
g219
ag697
ag1069
ag1649
atp3479
Rp3480
sbsbag0
(g23
g2
Ntp3481
Rp3482
(dp3483
g6
g0
(g7
g2
Ntp3484
Rp3485
(dp3486
g11
g0
(g12
g13
(lp3487
g2407
ag2110
ag2110
ag789
ag1132
ag2002
atp3488
Rp3489
sbsbag0
(g23
g2
Ntp3490
Rp3491
(dp3492
g6
g0
(g7
g2
Ntp3493
Rp3494
(dp3495
g11
g0
(g12
g13
(lp3496
g752
ag997
ag1549
ag697
ag771
ag461
ag1749
ag113
ag907
ag1350
atp3497
Rp3498
sbsbatp3499
Rp3500
sbsbag0
(g15
g2
Ntp3501
Rp3502
(dp3503
g6
g0
(g7
g2
Ntp3504
Rp3505
(dp3506
g11
g0
(g12
g13
(lp3507
g0
(g23
g2
Ntp3508
Rp3509
(dp3510
g6
g0
(g7
g2
Ntp3511
Rp3512
(dp3513
g11
g0
(g12
g13
(lp3514
g2371
ag1948
ag414
ag843
ag852
ag1540
ag1966
ag807
atp3515
Rp3516
sbsbag0
(g23
g2
Ntp3517
Rp3518
(dp3519
g6
g0
(g7
g2
Ntp3520
Rp3521
(dp3522
g11
g0
(g12
g13
(lp3523
g1087
ag561
ag0
(g31
g2
Ntp3524
Rp3525
(dp3526
g6
g0
(g7
g2
Ntp3527
Rp3528
(dp3529
g11
g0
(g12
g13
(lp3530
g101
ag71
ag254
ag254
ag130
ag81
atp3531
Rp3532
sbsbag0
(g31
g2
Ntp3533
Rp3534
(dp3535
g6
g0
(g7
g2
Ntp3536
Rp3537
(dp3538
g11
g0
(g12
g13
(lp3539
g140
ag91
ag101
ag71
ag51
ag189
ag130
ag179
atp3540
Rp3541
sbsbag1885
ag1223
ag0
(g31
g2
Ntp3542
Rp3543
(dp3544
g6
g0
(g7
g2
Ntp3545
Rp3546
(dp3547
g11
g0
(g12
g13
(lp3548
g61
atp3549
Rp3550
sbsbag688
ag1259
atp3551
Rp3552
sbsbag0
(g23
g2
Ntp3553
Rp3554
(dp3555
g6
g0
(g7
g2
Ntp3556
Rp3557
(dp3558
g11
g0
(g12
g13
(lp3559
g1695
ag2786
ag1141
ag1159
ag1186
ag807
ag2353
atp3560
Rp3561
sbsbag0
(g23
g2
Ntp3562
Rp3563
(dp3564
g6
g0
(g7
g2
Ntp3565
Rp3566
(dp3567
g11
g0
(g12
g13
(lp3568
g2029
ag2326
ag870
ag1006
atp3569
Rp3570
sbsbag0
(g23
g2
Ntp3571
Rp3572
(dp3573
g6
g0
(g7
g2
Ntp3574
Rp3575
(dp3576
g11
g0
(g12
g13
(lp3577
g2344
ag807
ag1323
ag3318
ag228
ag1594
ag1414
ag870
ag1459
atp3578
Rp3579
sbsbag0
(g23
g2
Ntp3580
Rp3581
(dp3582
g6
g0
(g7
g2
Ntp3583
Rp3584
(dp3585
g11
g0
(g12
g13
(lp3586
g1204
ag237
ag961
ag1459
ag414
ag152
ag3255
atp3587
Rp3588
sbsbag0
(g23
g2
Ntp3589
Rp3590
(dp3591
g6
g0
(g7
g2
Ntp3592
Rp3593
(dp3594
g11
g0
(g12
g13
(lp3595
g1984
ag907
ag807
ag0
(g31
g2
Ntp3596
Rp3597
(dp3598
g6
g0
(g7
g2
Ntp3599
Rp3600
(dp3601
g11
g0
(g12
g13
(lp3602
g179
ag61
ag130
ag51
ag140
ag81
atp3603
Rp3604
sbsbag715
ag2353
ag1033
atp3605
Rp3606
sbsbag0
(g23
g2
Ntp3607
Rp3608
(dp3609
g6
g0
(g7
g2
Ntp3610
Rp3611
(dp3612
g11
g0
(g12
g13
(lp3613
g340
ag152
ag228
ag771
ag843
ag852
ag2353
atp3614
Rp3615
sbsbag0
(g23
g2
Ntp3616
Rp3617
(dp3618
g6
g0
(g7
g2
Ntp3619
Rp3620
(dp3621
g11
g0
(g12
g13
(lp3622
g1984
ag2660
ag2949
ag461
ag843
ag852
ag634
ag0
(g31
g2
Ntp3623
Rp3624
(dp3625
g6
g0
(g7
g2
Ntp3626
Rp3627
(dp3628
g11
g0
(g12
g13
(lp3629
g61
ag159
atp3630
Rp3631
sbsbag2272
ag1504
ag0
(g31
g2
Ntp3632
Rp3633
(dp3634
g6
g0
(g7
g2
Ntp3635
Rp3636
(dp3637
g11
g0
(g12
g13
(lp3638
g91
ag130
ag91
ag159
atp3639
Rp3640
sbsbatp3641
Rp3642
sbsbag0
(g23
g2
Ntp3643
Rp3644
(dp3645
g6
g0
(g7
g2
Ntp3646
Rp3647
(dp3648
g11
g0
(g12
g13
(lp3649
g1984
ag0
(g31
g2
Ntp3650
Rp3651
(dp3652
g6
g0
(g7
g2
Ntp3653
Rp3654
(dp3655
g11
g0
(g12
g13
(lp3656
g310
ag71
ag130
ag421
ag140
ag61
ag101
atp3657
Rp3658
sbsbag1658
ag2353
ag1631
ag0
(g31
g2
Ntp3659
Rp3660
(dp3661
g6
g0
(g7
g2
Ntp3662
Rp3663
(dp3664
g11
g0
(g12
g13
(lp3665
g159
ag169
ag91
ag189
ag140
ag179
ag71
ag91
ag101
ag130
ag179
atp3666
Rp3667
sbsbag2525
ag266
ag552
ag0
(g31
g2
Ntp3668
Rp3669
(dp3670
g6
g0
(g7
g2
Ntp3671
Rp3672
(dp3673
g11
g0
(g12
g13
(lp3674
g179
ag140
atp3675
Rp3676
sbsbag1486
ag386
ag1314
ag861
ag997
ag925
atp3677
Rp3678
sbsbatp3679
Rp3680
sbsbag0
(g15
g2
Ntp3681
Rp3682
(dp3683
g6
g0
(g7
g2
Ntp3684
Rp3685
(dp3686
g11
g0
(g12
g13
(lp3687
g0
(g23
g2
Ntp3688
Rp3689
(dp3690
g6
g0
(g7
g2
Ntp3691
Rp3692
(dp3693
g11
g0
(g12
g13
(lp3694
g2912
ag1177
ag1631
ag1296
atp3695
Rp3696
sbsbag0
(g23
g2
Ntp3697
Rp3698
(dp3699
g6
g0
(g7
g2
Ntp3700
Rp3701
(dp3702
g11
g0
(g12
g13
(lp3703
g1087
ag1123
ag1822
ag2200
ag715
ag543
ag1060
ag1948
ag497
atp3704
Rp3705
sbsbag0
(g23
g2
Ntp3706
Rp3707
(dp3708
g6
g0
(g7
g2
Ntp3709
Rp3710
(dp3711
g11
g0
(g12
g13
(lp3712
g1695
ag1314
ag816
atp3713
Rp3714
sbsbag0
(g23
g2
Ntp3715
Rp3716
(dp3717
g6
g0
(g7
g2
Ntp3718
Rp3719
(dp3720
g11
g0
(g12
g13
(lp3721
g442
ag1840
ag3255
ag1567
ag843
ag852
ag1323
atp3722
Rp3723
sbsbag0
(g23
g2
Ntp3724
Rp3725
(dp3726
g6
g0
(g7
g2
Ntp3727
Rp3728
(dp3729
g11
g0
(g12
g13
(lp3730
g888
ag228
ag201
ag0
(g31
g2
Ntp3731
Rp3732
(dp3733
g6
g0
(g7
g2
Ntp3734
Rp3735
(dp3736
g11
g0
(g12
g13
(lp3737
g189
ag140
ag159
ag101
ag130
ag179
atp3738
Rp3739
sbsbag386
ag1305
ag0
(g31
g2
Ntp3740
Rp3741
(dp3742
g6
g0
(g7
g2
Ntp3743
Rp3744
(dp3745
g11
g0
(g12
g13
(lp3746
g81
ag169
ag189
ag61
ag254
ag71
ag81
atp3747
Rp3748
sbsbag697
ag2525
atp3749
Rp3750
sbsbag0
(g23
g2
Ntp3751
Rp3752
(dp3753
g6
g0
(g7
g2
Ntp3754
Rp3755
(dp3756
g11
g0
(g12
g13
(lp3757
g834
ag2353
ag916
ag670
atp3758
Rp3759
sbsbag0
(g23
g2
Ntp3760
Rp3761
(dp3762
g6
g0
(g7
g2
Ntp3763
Rp3764
(dp3765
g11
g0
(g12
g13
(lp3766
g340
ag1132
ag789
ag1731
atp3767
Rp3768
sbsbag0
(g23
g2
Ntp3769
Rp3770
(dp3771
g6
g0
(g7
g2
Ntp3772
Rp3773
(dp3774
g11
g0
(g12
g13
(lp3775
g2912
ag461
ag1767
ag359
ag1576
ag2146
ag843
ag852
ag970
ag961
ag1105
atp3776
Rp3777
sbsbag0
(g23
g2
Ntp3778
Rp3779
(dp3780
g6
g0
(g7
g2
Ntp3781
Rp3782
(dp3783
g11
g0
(g12
g13
(lp3784
g33
ag113
ag2426
ag3219
ag907
ag688
ag2227
atp3785
Rp3786
sbsbag0
(g23
g2
Ntp3787
Rp3788
(dp3789
g6
g0
(g7
g2
Ntp3790
Rp3791
(dp3792
g11
g0
(g12
g13
(lp3793
g2912
ag1885
ag870
ag1822
ag1677
ag1594
atp3794
Rp3795
sbsbatp3796
Rp3797
sbsbag0
(g15
g2
Ntp3798
Rp3799
(dp3800
g6
g0
(g7
g2
Ntp3801
Rp3802
(dp3803
g11
g0
(g12
g13
(lp3804
g0
(g23
g2
Ntp3805
Rp3806
(dp3807
g6
g0
(g7
g2
Ntp3808
Rp3809
(dp3810
g11
g0
(g12
g13
(lp3811
g442
ag1831
ag2885
ag1767
atp3812
Rp3813
sbsbag0
(g23
g2
Ntp3814
Rp3815
(dp3816
g6
g0
(g7
g2
Ntp3817
Rp3818
(dp3819
g11
g0
(g12
g13
(lp3820
g752
ag1441
ag201
ag0
(g31
g2
Ntp3821
Rp3822
(dp3823
g6
g0
(g7
g2
Ntp3824
Rp3825
(dp3826
g11
g0
(g12
g13
(lp3827
g169
ag51
ag159
ag140
atp3828
Rp3829
sbsbag843
ag852
ag1323
ag1186
ag1332
ag228
atp3830
Rp3831
sbsbag0
(g23
g2
Ntp3832
Rp3833
(dp3834
g6
g0
(g7
g2
Ntp3835
Rp3836
(dp3837
g11
g0
(g12
g13
(lp3838
g588
ag228
ag2885
ag670
atp3839
Rp3840
sbsbag0
(g23
g2
Ntp3841
Rp3842
(dp3843
g6
g0
(g7
g2
Ntp3844
Rp3845
(dp3846
g11
g0
(g12
g13
(lp3847
g442
ag1504
ag506
ag1060
ag997
ag807
atp3848
Rp3849
sbsbag0
(g23
g2
Ntp3850
Rp3851
(dp3852
g6
g0
(g7
g2
Ntp3853
Rp3854
(dp3855
g11
g0
(g12
g13
(lp3856
g1087
ag113
ag816
ag1186
atp3857
Rp3858
sbsbag0
(g23
g2
Ntp3859
Rp3860
(dp3861
g6
g0
(g7
g2
Ntp3862
Rp3863
(dp3864
g11
g0
(g12
g13
(lp3865
g1395
ag2723
ag266
ag1486
ag2588
ag322
atp3866
Rp3867
sbsbag0
(g23
g2
Ntp3868
Rp3869
(dp3870
g6
g0
(g7
g2
Ntp3871
Rp3872
(dp3873
g11
g0
(g12
g13
(lp3874
g2029
ag1123
ag2326
ag1576
ag1831
ag2426
atp3875
Rp3876
sbsbag0
(g23
g2
Ntp3877
Rp3878
(dp3879
g6
g0
(g7
g2
Ntp3880
Rp3881
(dp3882
g11
g0
(g12
g13
(lp3883
g33
ag952
ag359
ag1141
ag715
ag461
atp3884
Rp3885
sbsbag0
(g23
g2
Ntp3886
Rp3887
(dp3888
g6
g0
(g7
g2
Ntp3889
Rp3890
(dp3891
g11
g0
(g12
g13
(lp3892
g219
ag2119
ag652
ag1885
atp3893
Rp3894
sbsbatp3895
Rp3896
sbsbag0
(g15
g2
Ntp3897
Rp3898
(dp3899
g6
g0
(g7
g2
Ntp3900
Rp3901
(dp3902
g11
g0
(g12
g13
(lp3903
g0
(g23
g2
Ntp3904
Rp3905
(dp3906
g6
g0
(g7
g2
Ntp3907
Rp3908
(dp3909
g11
g0
(g12
g13
(lp3910
g1695
ag0
(g31
g2
Ntp3911
Rp3912
(dp3913
g6
g0
(g7
g2
Ntp3914
Rp3915
(dp3916
g11
g0
(g12
g13
(lp3917
g81
ag130
ag81
ag159
ag140
ag291
ag140
ag101
atp3918
Rp3919
sbsbag201
ag1132
ag1649
ag0
(g31
g2
Ntp3920
Rp3921
(dp3922
g6
g0
(g7
g2
Ntp3923
Rp3924
(dp3925
g11
g0
(g12
g13
(lp3926
g244
ag169
ag254
ag130
ag101
ag291
ag61
ag101
atp3927
Rp3928
sbsbag1006
ag2525
ag461
ag2579
ag715
ag1885
ag1259
ag2453
ag2326
ag1731
atp3929
Rp3930
sbsbag0
(g23
g2
Ntp3931
Rp3932
(dp3933
g6
g0
(g7
g2
Ntp3934
Rp3935
(dp3936
g11
g0
(g12
g13
(lp3937
g2344
ag2272
ag1658
ag2660
atp3938
Rp3939
sbsbag0
(g23
g2
Ntp3940
Rp3941
(dp3942
g6
g0
(g7
g2
Ntp3943
Rp3944
(dp3945
g11
g0
(g12
g13
(lp3946
g2218
ag2326
ag1822
ag359
ag1060
ag2389
ag237
atp3947
Rp3948
sbsbag0
(g23
g2
Ntp3949
Rp3950
(dp3951
g6
g0
(g7
g2
Ntp3952
Rp3953
(dp3954
g11
g0
(g12
g13
(lp3955
g1803
ag1677
ag201
ag3273
ag1749
ag961
ag643
ag1051
ag1141
atp3956
Rp3957
sbsbag0
(g23
g2
Ntp3958
Rp3959
(dp3960
g6
g0
(g7
g2
Ntp3961
Rp3962
(dp3963
g11
g0
(g12
g13
(lp3964
g442
ag1531
ag652
ag3633
atp3965
Rp3966
sbsbag0
(g23
g2
Ntp3967
Rp3968
(dp3969
g6
g0
(g7
g2
Ntp3970
Rp3971
(dp3972
g11
g0
(g12
g13
(lp3973
g1722
ag1441
ag201
ag3597
ag359
ag916
ag1060
ag1749
ag228
atp3974
Rp3975
sbsbag0
(g23
g2
Ntp3976
Rp3977
(dp3978
g6
g0
(g7
g2
Ntp3979
Rp3980
(dp3981
g11
g0
(g12
g13
(lp3982
g834
ag1459
ag543
ag488
atp3983
Rp3984
sbsbag0
(g23
g2
Ntp3985
Rp3986
(dp3987
g6
g0
(g7
g2
Ntp3988
Rp3989
(dp3990
g11
g0
(g12
g13
(lp3991
g2218
ag652
ag3372
ag2389
atp3992
Rp3993
sbsbag0
(g23
g2
Ntp3994
Rp3995
(dp3996
g6
g0
(g7
g2
Ntp3997
Rp3998
(dp3999
g11
g0
(g12
g13
(lp4000
g2471
ag461
ag1024
ag284
atp4001
Rp4002
sbsbag0
(g23
g2
Ntp4003
Rp4004
(dp4005
g6
g0
(g7
g2
Ntp4006
Rp4007
(dp4008
g11
g0
(g12
g13
(lp4009
g1803
ag2326
ag1177
ag1414
atp4010
Rp4011
sbsbag0
(g23
g2
Ntp4012
Rp4013
(dp4014
g6
g0
(g7
g2
Ntp4015
Rp4016
(dp4017
g11
g0
(g12
g13
(lp4018
g442
ag1885
ag1567
ag0
(g31
g2
Ntp4019
Rp4020
(dp4021
g6
g0
(g7
g2
Ntp4022
Rp4023
(dp4024
g11
g0
(g12
g13
(lp4025
g189
ag140
ag61
ag179
atp4026
Rp4027
sbsbag843
ag852
ag1069
ag961
ag552
ag1831
atp4028
Rp4029
sbsbag0
(g23
g2
Ntp4030
Rp4031
(dp4032
g6
g0
(g7
g2
Ntp4033
Rp4034
(dp4035
g11
g0
(g12
g13
(lp4036
g2254
ag228
ag488
ag0
(g31
g2
Ntp4037
Rp4038
(dp4039
g6
g0
(g7
g2
Ntp4040
Rp4041
(dp4042
g11
g0
(g12
g13
(lp4043
g61
ag189
ag140
ag291
ag140
ag81
ag159
ag140
ag91
ag421
atp4044
Rp4045
sbsbag970
ag1731
ag1114
ag0
(g31
g2
Ntp4046
Rp4047
(dp4048
g6
g0
(g7
g2
Ntp4049
Rp4050
(dp4051
g11
g0
(g12
g13
(lp4052
g291
ag71
ag254
ag254
ag71
ag91
ag101
ag71
ag81
ag120
ag130
ag71
atp4053
Rp4054
sbsbag1186
atp4055
Rp4056
sbsbag0
(g23
g2
Ntp4057
Rp4058
(dp4059
g6
g0
(g7
g2
Ntp4060
Rp4061
(dp4062
g11
g0
(g12
g13
(lp4063
g1984
ag405
ag1822
ag2534
ag1459
ag1840
ag1186
ag152
ag1132
atp4064
Rp4065
sbsbag0
(g23
g2
Ntp4066
Rp4067
(dp4068
g6
g0
(g7
g2
Ntp4069
Rp4070
(dp4071
g11
g0
(g12
g13
(lp4072
g2137
ag2002
ag1368
ag1677
ag697
ag303
atp4073
Rp4074
sbsbatp4075
Rp4076
sbsbag0
(g15
g2
Ntp4077
Rp4078
(dp4079
g6
g0
(g7
g2
Ntp4080
Rp4081
(dp4082
g11
g0
(g12
g13
(lp4083
g0
(g23
g2
Ntp4084
Rp4085
(dp4086
g6
g0
(g7
g2
Ntp4087
Rp4088
(dp4089
g11
g0
(g12
g13
(lp4090
g834
ag1831
ag1141
ag861
atp4091
Rp4092
sbsbag0
(g23
g2
Ntp4093
Rp4094
(dp4095
g6
g0
(g7
g2
Ntp4096
Rp4097
(dp4098
g11
g0
(g12
g13
(lp4099
g1803
ag1531
ag1948
ag1549
atp4100
Rp4101
sbsbag0
(g23
g2
Ntp4102
Rp4103
(dp4104
g6
g0
(g7
g2
Ntp4105
Rp4106
(dp4107
g11
g0
(g12
g13
(lp4108
g1803
ag3255
ag688
ag0
(g31
g2
Ntp4109
Rp4110
(dp4111
g6
g0
(g7
g2
Ntp4112
Rp4113
(dp4114
g11
g0
(g12
g13
(lp4115
g130
ag51
ag91
ag61
atp4116
Rp4117
sbsbag1531
ag2723
ag1259
ag870
ag715
atp4118
Rp4119
sbsbag0
(g23
g2
Ntp4120
Rp4121
(dp4122
g6
g0
(g7
g2
Ntp4123
Rp4124
(dp4125
g11
g0
(g12
g13
(lp4126
g752
ag0
(g31
g2
Ntp4127
Rp4128
(dp4129
g6
g0
(g7
g2
Ntp4130
Rp4131
(dp4132
g11
g0
(g12
g13
(lp4133
g159
ag169
ag91
ag421
ag130
ag71
atp4134
Rp4135
sbsbag1186
ag228
ag570
ag2714
ag1033
ag1540
ag697
ag0
(g31
g2
Ntp4136
Rp4137
(dp4138
g6
g0
(g7
g2
Ntp4139
Rp4140
(dp4141
g11
g0
(g12
g13
(lp4142
g91
ag71
ag120
ag130
ag71
atp4143
Rp4144
sbsbag907
ag688
ag201
ag1259
ag1531
ag3525
atp4145
Rp4146
sbsbag0
(g23
g2
Ntp4147
Rp4148
(dp4149
g6
g0
(g7
g2
Ntp4150
Rp4151
(dp4152
g11
g0
(g12
g13
(lp4153
g1395
ag1504
ag2326
ag1186
ag715
ag1069
atp4154
Rp4155
sbsbag0
(g23
g2
Ntp4156
Rp4157
(dp4158
g6
g0
(g7
g2
Ntp4159
Rp4160
(dp4161
g11
g0
(g12
g13
(lp4162
g2254
ag359
ag1948
ag2759
ag1132
ag2426
ag1767
atp4163
Rp4164
sbsbag0
(g23
g2
Ntp4165
Rp4166
(dp4167
g6
g0
(g7
g2
Ntp4168
Rp4169
(dp4170
g11
g0
(g12
g13
(lp4171
g1087
ag2119
ag414
ag2326
ag1468
ag2119
atp4172
Rp4173
sbsbag0
(g23
g2
Ntp4174
Rp4175
(dp4176
g6
g0
(g7
g2
Ntp4177
Rp4178
(dp4179
g11
g0
(g12
g13
(lp4180
g2371
ag2119
ag3633
ag1486
ag266
ag724
ag1966
atp4181
Rp4182
sbsbag0
(g23
g2
Ntp4183
Rp4184
(dp4185
g6
g0
(g7
g2
Ntp4186
Rp4187
(dp4188
g11
g0
(g12
g13
(lp4189
g1087
ag907
ag2453
ag3633
atp4190
Rp4191
sbsbag0
(g23
g2
Ntp4192
Rp4193
(dp4194
g6
g0
(g7
g2
Ntp4195
Rp4196
(dp4197
g11
g0
(g12
g13
(lp4198
g2471
ag715
ag1368
ag0
(g31
g2
Ntp4199
Rp4200
(dp4201
g6
g0
(g7
g2
Ntp4202
Rp4203
(dp4204
g11
g0
(g12
g13
(lp4205
g254
ag61
ag169
ag51
ag71
ag71
ag101
atp4206
Rp4207
sbsbag1296
ag1350
ag1432
ag816
ag488
atp4208
Rp4209
sbsbatp4210
Rp4211
sbsbag0
(g15
g2
Ntp4212
Rp4213
(dp4214
g6
g0
(g7
g2
Ntp4215
Rp4216
(dp4217
g11
g0
(g12
g13
(lp4218
g0
(g23
g2
Ntp4219
Rp4220
(dp4221
g6
g0
(g7
g2
Ntp4222
Rp4223
(dp4224
g11
g0
(g12
g13
(lp4225
g1722
ag0
(g31
g2
Ntp4226
Rp4227
(dp4228
g6
g0
(g7
g2
Ntp4229
Rp4230
(dp4231
g11
g0
(g12
g13
(lp4232
g310
ag61
ag159
ag140
ag254
ag140
ag81
ag140
atp4233
Rp4234
sbsbatp4235
Rp4236
sbsbag0
(g23
g2
Ntp4237
Rp4238
(dp4239
g6
g0
(g7
g2
Ntp4240
Rp4241
(dp4242
g11
g0
(g12
g13
(lp4243
g1395
ag0
(g31
g2
Ntp4244
Rp4245
(dp4246
g6
g0
(g7
g2
Ntp4247
Rp4248
(dp4249
g11
g0
(g12
g13
(lp4250
g291
ag130
ag254
ag244
ag140
ag91
ag61
ag51
atp4251
Rp4252
sbsbag1259
ag1831
ag1123
ag0
(g31
g2
Ntp4253
Rp4254
(dp4255
g6
g0
(g7
g2
Ntp4256
Rp4257
(dp4258
g11
g0
(g12
g13
(lp4259
g254
ag130
ag159
ag101
ag130
ag81
atp4260
Rp4261
sbsbag1006
ag1658
ag1051
ag1930
ag715
ag479
ag1060
ag3525
ag907
ag607
atp4262
Rp4263
sbsbag3077
ag0
(g23
g2
Ntp4264
Rp4265
(dp4266
g6
g0
(g7
g2
Ntp4267
Rp4268
(dp4269
g11
g0
(g12
g13
(lp4270
g1204
ag2290
ag771
ag228
ag1250
ag0
(g31
g2
Ntp4271
Rp4272
(dp4273
g6
g0
(g7
g2
Ntp4274
Rp4275
(dp4276
g11
g0
(g12
g13
(lp4277
g291
ag169
ag51
ag101
ag101
ag140
ag101
ag169
ag51
atp4278
Rp4279
sbsbag961
ag201
ag724
ag0
(g31
g2
Ntp4280
Rp4281
(dp4282
g6
g0
(g7
g2
Ntp4283
Rp4284
(dp4285
g11
g0
(g12
g13
(lp4286
g244
ag71
ag254
ag140
ag101
atp4287
Rp4288
sbsbag228
ag2588
ag1033
ag3525
ag1677
ag1540
atp4289
Rp4290
sbsbag0
(g23
g2
Ntp4291
Rp4292
(dp4293
g6
g0
(g7
g2
Ntp4294
Rp4295
(dp4296
g11
g0
(g12
g13
(lp4297
g2218
ag1441
ag2723
ag988
ag1159
ag1594
ag1903
ag3372
ag113
atp4298
Rp4299
sbsbag0
(g23
g2
Ntp4300
Rp4301
(dp4302
g6
g0
(g7
g2
Ntp4303
Rp4304
(dp4305
g11
g0
(g12
g13
(lp4306
g340
ag552
ag322
ag1296
atp4307
Rp4308
sbsbag0
(g23
g2
Ntp4309
Rp4310
(dp4311
g6
g0
(g7
g2
Ntp4312
Rp4313
(dp4314
g11
g0
(g12
g13
(lp4315
g33
ag0
(g31
g2
Ntp4316
Rp4317
(dp4318
g6
g0
(g7
g2
Ntp4319
Rp4320
(dp4321
g11
g0
(g12
g13
(lp4322
g310
ag71
ag51
ag179
ag71
ag91
ag101
ag130
ag179
atp4323
Rp4324
sbsbag607
ag1459
ag1296
ag2290
ag961
ag1731
ag2002
ag3822
ag1486
ag2272
ag670
ag1540
ag1831
ag1767
atp4325
Rp4326
sbsbag0
(g23
g2
Ntp4327
Rp4328
(dp4329
g6
g0
(g7
g2
Ntp4330
Rp4331
(dp4332
g11
g0
(g12
g13
(lp4333
g1722
ag2272
ag1259
ag113
ag1594
ag697
atp4334
Rp4335
sbsbag0
(g23
g2
Ntp4336
Rp4337
(dp4338
g6
g0
(g7
g2
Ntp4339
Rp4340
(dp4341
g11
g0
(g12
g13
(lp4342
g1803
ag1486
ag1822
ag2326
ag1141
ag1504
ag1250
atp4343
Rp4344
sbsbag0
(g23
g2
Ntp4345
Rp4346
(dp4347
g6
g0
(g7
g2
Ntp4348
Rp4349
(dp4350
g11
g0
(g12
g13
(lp4351
g1803
ag1504
ag1549
ag1459
ag1168
ag2426
atp4352
Rp4353
sbsbag0
(g23
g2
Ntp4354
Rp4355
(dp4356
g6
g0
(g7
g2
Ntp4357
Rp4358
(dp4359
g11
g0
(g12
g13
(lp4360
g1722
ag1468
ag2083
ag561
ag201
ag816
ag1966
atp4361
Rp4362
sbsbag0
(g23
g2
Ntp4363
Rp4364
(dp4365
g6
g0
(g7
g2
Ntp4366
Rp4367
(dp4368
g11
g0
(g12
g13
(lp4369
g2254
ag1649
ag1141
ag2687
ag1831
ag552
ag2453
ag1966
ag907
atp4370
Rp4371
sbsbag0
(g23
g2
Ntp4372
Rp4373
(dp4374
g6
g0
(g7
g2
Ntp4375
Rp4376
(dp4377
g11
g0
(g12
g13
(lp4378
g1277
ag952
ag1296
ag1105
atp4379
Rp4380
sbsbag0
(g23
g2
Ntp4381
Rp4382
(dp4383
g6
g0
(g7
g2
Ntp4384
Rp4385
(dp4386
g11
g0
(g12
g13
(lp4387
g2471
ag0
(g31
g2
Ntp4388
Rp4389
(dp4390
g6
g0
(g7
g2
Ntp4391
Rp4392
(dp4393
g11
g0
(g12
g13
(lp4394
g731
ag61
ag159
atp4395
Rp4396
sbsbag0
(g31
g2
Ntp4397
Rp4398
(dp4399
g6
g0
(g7
g2
Ntp4400
Rp4401
(dp4402
g11
g0
(g12
g13
(lp4403
g731
ag61
ag393
ag140
ag101
ag61
ag81
ag81
ag71
atp4404
Rp4405
sbsbag0
(g31
g2
Ntp4406
Rp4407
(dp4408
g6
g0
(g7
g2
Ntp4409
Rp4410
(dp4411
g11
g0
(g12
g13
(lp4412
g291
ag254
ag61
ag101
ag71
ag61
atp4413
Rp4414
sbsbag0
(g31
g2
Ntp4415
Rp4416
(dp4417
g6
g0
(g7
g2
Ntp4418
Rp4419
(dp4420
g11
g0
(g12
g13
(lp4421
g189
ag140
ag159
ag101
ag130
ag179
ag81
ag101
atp4422
Rp4423
sbsbatp4424
Rp4425
sbsbatp4426
Rp4427
sbsbag0
(g15
g2
Ntp4428
Rp4429
(dp4430
g6
g0
(g7
g2
Ntp4431
Rp4432
(dp4433
g11
g0
(g12
g13
(lp4434
g0
(g23
g2
Ntp4435
Rp4436
(dp4437
g6
g0
(g7
g2
Ntp4438
Rp4439
(dp4440
g11
g0
(g12
g13
(lp4441
g1984
ag1531
ag1903
ag0
(g31
g2
Ntp4442
Rp4443
(dp4444
g6
g0
(g7
g2
Ntp4445
Rp4446
(dp4447
g11
g0
(g12
g13
(lp4448
g244
ag71
ag731
ag140
ag159
ag130
ag254
ag61
atp4449
Rp4450
sbsbag1948
ag1767
ag3228
ag688
ag1540
atp4451
Rp4452
sbsbag0
(g23
g2
Ntp4453
Rp4454
(dp4455
g6
g0
(g7
g2
Ntp4456
Rp4457
(dp4458
g11
g0
(g12
g13
(lp4459
g2029
ag1885
ag1822
ag1831
ag1731
ag0
(g31
g2
Ntp4460
Rp4461
(dp4462
g6
g0
(g7
g2
Ntp4463
Rp4464
(dp4465
g11
g0
(g12
g13
(lp4466
g71
ag254
ag71
ag179
ag71
ag91
ag101
ag130
ag179
atp4467
Rp4468
sbsbag1677
ag661
ag2453
ag916
atp4469
Rp4470
sbsbag0
(g23
g2
Ntp4471
Rp4472
(dp4473
g6
g0
(g7
g2
Ntp4474
Rp4475
(dp4476
g11
g0
(g12
g13
(lp4477
g752
ag1323
ag1332
ag0
(g31
g2
Ntp4478
Rp4479
(dp4480
g6
g0
(g7
g2
Ntp4481
Rp4482
(dp4483
g11
g0
(g12
g13
(lp4484
g81
ag61
ag291
ag140
ag71
ag91
atp4485
Rp4486
sbsbag561
ag2786
ag2525
ag2002
ag552
atp4487
Rp4488
sbsbag0
(g23
g2
Ntp4489
Rp4490
(dp4491
g6
g0
(g7
g2
Ntp4492
Rp4493
(dp4494
g11
g0
(g12
g13
(lp4495
g752
ag843
ag852
ag807
ag3822
ag1677
ag461
ag1186
atp4496
Rp4497
sbsbag0
(g23
g2
Ntp4498
Rp4499
(dp4500
g6
g0
(g7
g2
Ntp4501
Rp4502
(dp4503
g11
g0
(g12
g13
(lp4504
g834
ag2326
ag1731
ag843
ag852
ag1141
ag1441
ag1867
atp4505
Rp4506
sbsbag0
(g23
g2
Ntp4507
Rp4508
(dp4509
g6
g0
(g7
g2
Ntp4510
Rp4511
(dp4512
g11
g0
(g12
g13
(lp4513
g442
ag228
ag322
ag988
ag907
ag2786
ag1903
atp4514
Rp4515
sbsbag0
(g23
g2
Ntp4516
Rp4517
(dp4518
g6
g0
(g7
g2
Ntp4519
Rp4520
(dp4521
g11
g0
(g12
g13
(lp4522
g2218
ag303
ag2110
ag2525
ag1831
ag1024
atp4523
Rp4524
sbsbatp4525
Rp4526
sbsbag0
(g15
g2
Ntp4527
Rp4528
(dp4529
g6
g0
(g7
g2
Ntp4530
Rp4531
(dp4532
g11
g0
(g12
g13
(lp4533
g0
(g23
g2
Ntp4534
Rp4535
(dp4536
g6
g0
(g7
g2
Ntp4537
Rp4538
(dp4539
g11
g0
(g12
g13
(lp4540
g834
ag1631
ag2453
ag1459
ag1567
ag2299
ag368
ag1024
ag1731
ag552
atp4541
Rp4542
sbsbag0
(g23
g2
Ntp4543
Rp4544
(dp4545
g6
g0
(g7
g2
Ntp4546
Rp4547
(dp4548
g11
g0
(g12
g13
(lp4549
g1395
ag1885
ag1105
ag1540
ag1132
ag1785
atp4550
Rp4551
sbsbag0
(g23
g2
Ntp4552
Rp4553
(dp4554
g6
g0
(g7
g2
Ntp4555
Rp4556
(dp4557
g11
g0
(g12
g13
(lp4558
g834
ag625
ag561
ag1186
ag1677
ag461
atp4559
Rp4560
sbsbag0
(g23
g2
Ntp4561
Rp4562
(dp4563
g6
g0
(g7
g2
Ntp4564
Rp4565
(dp4566
g11
g0
(g12
g13
(lp4567
g2029
ag1531
ag1731
ag1132
ag706
ag1069
ag2389
atp4568
Rp4569
sbsbag0
(g23
g2
Ntp4570
Rp4571
(dp4572
g6
g0
(g7
g2
Ntp4573
Rp4574
(dp4575
g11
g0
(g12
g13
(lp4576
g219
ag1459
ag634
ag0
(g31
g2
Ntp4577
Rp4578
(dp4579
g6
g0
(g7
g2
Ntp4580
Rp4581
(dp4582
g11
g0
(g12
g13
(lp4583
g101
ag51
ag140
ag81
ag101
ag140
ag120
ag130
ag71
atp4584
Rp4585
sbsbag1168
ag2525
ag643
ag1024
ag2525
atp4586
Rp4587
sbsbag0
(g23
g2
Ntp4588
Rp4589
(dp4590
g6
g0
(g7
g2
Ntp4591
Rp4592
(dp4593
g11
g0
(g12
g13
(lp4594
g2912
ag1069
ag497
ag1259
ag1677
ag1631
atp4595
Rp4596
sbsbag0
(g23
g2
Ntp4597
Rp4598
(dp4599
g6
g0
(g7
g2
Ntp4600
Rp4601
(dp4602
g11
g0
(g12
g13
(lp4603
g834
ag201
ag616
ag1785
ag715
ag1858
ag1015
ag2002
ag561
ag3633
atp4604
Rp4605
sbsbag0
(g23
g2
Ntp4606
Rp4607
(dp4608
g6
g0
(g7
g2
Ntp4609
Rp4610
(dp4611
g11
g0
(g12
g13
(lp4612
g2371
ag1060
ag4110
ag1948
ag1486
ag3633
ag3624
ag386
ag688
ag1658
atp4613
Rp4614
sbsbag0
(g23
g2
Ntp4615
Rp4616
(dp4617
g6
g0
(g7
g2
Ntp4618
Rp4619
(dp4620
g11
g0
(g12
g13
(lp4621
g752
ag1259
ag1930
ag1858
ag561
ag1867
ag643
ag386
ag2326
ag1350
atp4622
Rp4623
sbsbag0
(g23
g2
Ntp4624
Rp4625
(dp4626
g6
g0
(g7
g2
Ntp4627
Rp4628
(dp4629
g11
g0
(g12
g13
(lp4630
g2444
ag1749
ag1105
ag1051
atp4631
Rp4632
sbsbag0
(g23
g2
Ntp4633
Rp4634
(dp4635
g6
g0
(g7
g2
Ntp4636
Rp4637
(dp4638
g11
g0
(g12
g13
(lp4639
g2371
ag1132
ag2885
ag0
(g31
g2
Ntp4640
Rp4641
(dp4642
g6
g0
(g7
g2
Ntp4643
Rp4644
(dp4645
g11
g0
(g12
g13
(lp4646
g254
ag140
ag393
ag71
ag51
ag169
atp4647
Rp4648
sbsbag359
ag1594
ag2525
atp4649
Rp4650
sbsbag0
(g23
g2
Ntp4651
Rp4652
(dp4653
g6
g0
(g7
g2
Ntp4654
Rp4655
(dp4656
g11
g0
(g12
g13
(lp4657
g834
ag152
ag1323
ag807
atp4658
Rp4659
sbsbatp4660
Rp4661
sbsbag0
(g15
g2
Ntp4662
Rp4663
(dp4664
g6
g0
(g7
g2
Ntp4665
Rp4666
(dp4667
g11
g0
(g12
g13
(lp4668
g0
(g23
g2
Ntp4669
Rp4670
(dp4671
g6
g0
(g7
g2
Ntp4672
Rp4673
(dp4674
g11
g0
(g12
g13
(lp4675
g588
ag1677
ag1785
ag607
atp4676
Rp4677
sbsbag0
(g23
g2
Ntp4678
Rp4679
(dp4680
g6
g0
(g7
g2
Ntp4681
Rp4682
(dp4683
g11
g0
(g12
g13
(lp4684
g1204
ag843
ag852
ag2353
ag2200
ag1677
ag2155
ag2083
atp4685
Rp4686
sbsbag0
(g23
g2
Ntp4687
Rp4688
(dp4689
g6
g0
(g7
g2
Ntp4690
Rp4691
(dp4692
g11
g0
(g12
g13
(lp4693
g442
ag2002
ag461
ag780
ag907
ag1867
ag1033
ag1105
ag1159
atp4694
Rp4695
sbsbag0
(g23
g2
Ntp4696
Rp4697
(dp4698
g6
g0
(g7
g2
Ntp4699
Rp4700
(dp4701
g11
g0
(g12
g13
(lp4702
g340
ag907
ag2227
ag0
(g31
g2
Ntp4703
Rp4704
(dp4705
g6
g0
(g7
g2
Ntp4706
Rp4707
(dp4708
g11
g0
(g12
g13
(lp4709
g140
ag61
ag159
ag130
ag254
ag140
ag81
atp4710
Rp4711
sbsbag870
ag1060
ag2182
ag816
ag1731
atp4712
Rp4713
sbsbag0
(g23
g2
Ntp4714
Rp4715
(dp4716
g6
g0
(g7
g2
Ntp4717
Rp4718
(dp4719
g11
g0
(g12
g13
(lp4720
g2029
ag1631
ag1305
ag561
ag670
ag152
ag1785
atp4721
Rp4722
sbsbag0
(g23
g2
Ntp4723
Rp4724
(dp4725
g6
g0
(g7
g2
Ntp4726
Rp4727
(dp4728
g11
g0
(g12
g13
(lp4729
g2344
ag1486
ag461
ag2200
ag1105
ag479
ag1731
atp4730
Rp4731
sbsbag0
(g23
g2
Ntp4732
Rp4733
(dp4734
g6
g0
(g7
g2
Ntp4735
Rp4736
(dp4737
g11
g0
(g12
g13
(lp4738
g2254
ag368
ag414
ag228
ag607
ag0
(g31
g2
Ntp4739
Rp4740
(dp4741
g6
g0
(g7
g2
Ntp4742
Rp4743
(dp4744
g11
g0
(g12
g13
(lp4745
g179
ag61
ag254
ag71
ag81
ag130
ag61
ag189
ag61
atp4746
Rp4747
sbsbag997
ag1468
ag789
ag2155
atp4748
Rp4749
sbsbag0
(g23
g2
Ntp4750
Rp4751
(dp4752
g6
g0
(g7
g2
Ntp4753
Rp4754
(dp4755
g11
g0
(g12
g13
(lp4756
g2029
ag2119
ag1858
ag470
ag1531
ag3372
atp4757
Rp4758
sbsbag0
(g23
g2
Ntp4759
Rp4760
(dp4761
g6
g0
(g7
g2
Ntp4762
Rp4763
(dp4764
g11
g0
(g12
g13
(lp4765
g0
(g31
g2
Ntp4766
Rp4767
(dp4768
g6
g0
(g7
g2
Ntp4769
Rp4770
(dp4771
g11
g0
(g12
g13
(lp4772
g2414
ag91
ag101
ag71
ag51
ag189
ag130
ag179
atp4773
Rp4774
sbsbag997
ag322
ag2074
ag1459
ag1567
ag1576
ag1585
ag1132
ag386
atp4775
Rp4776
sbsbag4382
ag4220
ag0
(g23
g2
Ntp4777
Rp4778
(dp4779
g6
g0
(g7
g2
Ntp4780
Rp4781
(dp4782
g11
g0
(g12
g13
(lp4783
g2371
ag561
ag1259
ag1677
ag670
ag2389
ag1966
atp4784
Rp4785
sbsbag0
(g23
g2
Ntp4786
Rp4787
(dp4788
g6
g0
(g7
g2
Ntp4789
Rp4790
(dp4791
g11
g0
(g12
g13
(lp4792
g1722
ag359
ag1993
ag2949
ag359
ag543
ag1314
atp4793
Rp4794
sbsbag0
(g23
g2
Ntp4795
Rp4796
(dp4797
g6
g0
(g7
g2
Ntp4798
Rp4799
(dp4800
g11
g0
(g12
g13
(lp4801
g1722
ag1531
ag1767
ag0
(g31
g2
Ntp4802
Rp4803
(dp4804
g6
g0
(g7
g2
Ntp4805
Rp4806
(dp4807
g11
g0
(g12
g13
(lp4808
g81
ag61
ag421
ag140
ag101
ag101
ag140
ag81
atp4809
Rp4810
sbsbag506
ag1549
ag1377
ag1948
ag1540
atp4811
Rp4812
sbsbag0
(g23
g2
Ntp4813
Rp4814
(dp4815
g6
g0
(g7
g2
Ntp4816
Rp4817
(dp4818
g11
g0
(g12
g13
(lp4819
g1695
ag461
ag3255
ag4110
ag1159
ag2155
ag2453
atp4820
Rp4821
sbsbag0
(g23
g2
Ntp4822
Rp4823
(dp4824
g6
g0
(g7
g2
Ntp4825
Rp4826
(dp4827
g11
g0
(g12
g13
(lp4828
g524
ag1459
ag870
ag1540
atp4829
Rp4830
sbsbatp4831
Rp4832
sbsbag0
(g15
g2
Ntp4833
Rp4834
(dp4835
g6
g0
(g7
g2
Ntp4836
Rp4837
(dp4838
g11
g0
(g12
g13
(lp4839
g0
(g23
g2
Ntp4840
Rp4841
(dp4842
g6
g0
(g7
g2
Ntp4843
Rp4844
(dp4845
g11
g0
(g12
g13
(lp4846
g1087
ag3255
ag2227
ag2326
ag1186
ag1296
ag652
atp4847
Rp4848
sbsbag0
(g23
g2
Ntp4849
Rp4850
(dp4851
g6
g0
(g7
g2
Ntp4852
Rp4853
(dp4854
g11
g0
(g12
g13
(lp4855
g2407
ag1305
ag3597
ag1867
ag359
ag1966
ag0
(g31
g2
Ntp4856
Rp4857
(dp4858
g6
g0
(g7
g2
Ntp4859
Rp4860
(dp4861
g11
g0
(g12
g13
(lp4862
g130
ag101
atp4863
Rp4864
sbsbag2885
ag561
ag1658
atp4865
Rp4866
sbsbag0
(g23
g2
Ntp4867
Rp4868
(dp4869
g6
g0
(g7
g2
Ntp4870
Rp4871
(dp4872
g11
g0
(g12
g13
(lp4873
g1204
ag997
ag1033
ag715
ag1141
ag1594
ag1296
atp4874
Rp4875
sbsbag0
(g23
g2
Ntp4876
Rp4877
(dp4878
g6
g0
(g7
g2
Ntp4879
Rp4880
(dp4881
g11
g0
(g12
g13
(lp4882
g1087
ag715
ag861
ag2714
ag1177
ag861
ag843
ag0
(g31
g2
Ntp4883
Rp4884
(dp4885
g6
g0
(g7
g2
Ntp4886
Rp4887
(dp4888
g11
g0
(g12
g13
(lp4889
g61
ag179
ag71
ag101
atp4890
Rp4891
sbsbag1840
ag861
atp4892
Rp4893
sbsbag0
(g23
g2
Ntp4894
Rp4895
(dp4896
g6
g0
(g7
g2
Ntp4897
Rp4898
(dp4899
g11
g0
(g12
g13
(lp4900
g340
ag3660
ag2227
ag228
ag405
ag3003
ag1414
ag2083
ag543
ag2380
ag1677
ag4047
ag925
ag1060
ag228
ag1350
atp4901
Rp4902
sbsbag2833
ag0
(g23
g2
Ntp4903
Rp4904
(dp4905
g6
g0
(g7
g2
Ntp4906
Rp4907
(dp4908
g11
g0
(g12
g13
(lp4909
g1984
ag461
ag1459
ag706
ag1677
ag2723
atp4910
Rp4911
sbsbag0
(g23
g2
Ntp4912
Rp4913
(dp4914
g6
g0
(g7
g2
Ntp4915
Rp4916
(dp4917
g11
g0
(g12
g13
(lp4918
g834
ag1459
ag266
ag1831
ag1060
ag1948
ag1993
ag561
ag228
ag861
atp4919
Rp4920
sbsbag0
(g23
g2
Ntp4921
Rp4922
(dp4923
g6
g0
(g7
g2
Ntp4924
Rp4925
(dp4926
g11
g0
(g12
g13
(lp4927
g834
ag237
ag2660
ag1831
ag724
ag386
atp4928
Rp4929
sbsbag0
(g23
g2
Ntp4930
Rp4931
(dp4932
g6
g0
(g7
g2
Ntp4933
Rp4934
(dp4935
g11
g0
(g12
g13
(lp4936
g1722
ag1105
ag1159
ag201
ag561
ag625
atp4937
Rp4938
sbsbag0
(g23
g2
Ntp4939
Rp4940
(dp4941
g6
g0
(g7
g2
Ntp4942
Rp4943
(dp4944
g11
g0
(g12
g13
(lp4945
g1695
ag1677
ag3633
ag113
ag789
ag497
ag1069
ag2326
ag284
ag2732
atp4946
Rp4947
sbsbag0
(g23
g2
Ntp4948
Rp4949
(dp4950
g6
g0
(g7
g2
Ntp4951
Rp4952
(dp4953
g11
g0
(g12
g13
(lp4954
g1803
ag907
ag1259
ag997
ag1141
ag368
ag2011
ag2326
ag1459
ag2660
atp4955
Rp4956
sbsbag0
(g23
g2
Ntp4957
Rp4958
(dp4959
g6
g0
(g7
g2
Ntp4960
Rp4961
(dp4962
g11
g0
(g12
g13
(lp4963
g2029
ag1594
ag2155
ag1006
ag843
ag852
ag1840
atp4964
Rp4965
sbsbag0
(g23
g2
Ntp4966
Rp4967
(dp4968
g6
g0
(g7
g2
Ntp4969
Rp4970
(dp4971
g11
g0
(g12
g13
(lp4972
g1722
ag907
ag1177
ag3525
atp4973
Rp4974
sbsbatp4975
Rp4976
sbsbag0
(g15
g2
Ntp4977
Rp4978
(dp4979
g6
g0
(g7
g2
Ntp4980
Rp4981
(dp4982
g11
g0
(g12
g13
(lp4983
g0
(g23
g2
Ntp4984
Rp4985
(dp4986
g6
g0
(g7
g2
Ntp4987
Rp4988
(dp4989
g11
g0
(g12
g13
(lp4990
g524
ag688
ag2885
ag461
atp4991
Rp4992
sbsbag0
(g23
g2
Ntp4993
Rp4994
(dp4995
g6
g0
(g7
g2
Ntp4996
Rp4997
(dp4998
g11
g0
(g12
g13
(lp4999
g2471
ag1159
ag461
ag616
ag1459
ag2786
ag1006
atp5000
Rp5001
sbsbag0
(g23
g2
Ntp5002
Rp5003
(dp5004
g6
g0
(g7
g2
Ntp5005
Rp5006
(dp5007
g11
g0
(g12
g13
(lp5008
g834
ag724
ag1069
ag1549
ag1486
ag1468
atp5009
Rp5010
sbsbag0
(g23
g2
Ntp5011
Rp5012
(dp5013
g6
g0
(g7
g2
Ntp5014
Rp5015
(dp5016
g11
g0
(g12
g13
(lp5017
g2471
ag1132
ag303
ag1096
ag1132
ag1051
ag925
atp5018
Rp5019
sbsbag0
(g23
g2
Ntp5020
Rp5021
(dp5022
g6
g0
(g7
g2
Ntp5023
Rp5024
(dp5025
g11
g0
(g12
g13
(lp5026
g834
ag359
ag1731
ag2453
atp5027
Rp5028
sbsbag0
(g23
g2
Ntp5029
Rp5030
(dp5031
g6
g0
(g7
g2
Ntp5032
Rp5033
(dp5034
g11
g0
(g12
g13
(lp5035
g1695
ag1831
ag1259
ag1903
atp5036
Rp5037
sbsbag0
(g23
g2
Ntp5038
Rp5039
(dp5040
g6
g0
(g7
g2
Ntp5041
Rp5042
(dp5043
g11
g0
(g12
g13
(lp5044
g1722
ag113
ag870
ag706
atp5045
Rp5046
sbsbag0
(g23
g2
Ntp5047
Rp5048
(dp5049
g6
g0
(g7
g2
Ntp5050
Rp5051
(dp5052
g11
g0
(g12
g13
(lp5053
g442
ag1486
ag461
ag2489
ag1831
ag916
ag1060
atp5054
Rp5055
sbsbag0
(g23
g2
Ntp5056
Rp5057
(dp5058
g6
g0
(g7
g2
Ntp5059
Rp5060
(dp5061
g11
g0
(g12
g13
(lp5062
g219
ag1314
ag2606
ag3372
ag113
ag697
ag0
(g31
g2
Ntp5063
Rp5064
(dp5065
g6
g0
(g7
g2
Ntp5066
Rp5067
(dp5068
g11
g0
(g12
g13
(lp5069
g393
ag254
ag61
ag91
ag189
ag140
ag101
atp5070
Rp5071
sbsbag2389
ag561
ag1314
atp5072
Rp5073
sbsbag0
(g23
g2
Ntp5074
Rp5075
(dp5076
g6
g0
(g7
g2
Ntp5077
Rp5078
(dp5079
g11
g0
(g12
g13
(lp5080
g2254
ag506
ag1033
ag715
ag607
ag3651
ag1159
ag284
ag670
ag2110
atp5081
Rp5082
sbsbag0
(g23
g2
Ntp5083
Rp5084
(dp5085
g6
g0
(g7
g2
Ntp5086
Rp5087
(dp5088
g11
g0
(g12
g13
(lp5089
g1722
ag861
ag988
ag2723
ag2326
ag506
ag1241
ag1468
ag997
ag706
atp5090
Rp5091
sbsbag3707
atp5092
Rp5093
sbsbag0
(g15
g2
Ntp5094
Rp5095
(dp5096
g6
g0
(g7
g2
Ntp5097
Rp5098
(dp5099
g11
g0
(g12
g13
(lp5100
g0
(g23
g2
Ntp5101
Rp5102
(dp5103
g6
g0
(g7
g2
Ntp5104
Rp5105
(dp5106
g11
g0
(g12
g13
(lp5107
g1803
ag715
ag2426
ag2976
ag1486
ag625
ag1567
atp5108
Rp5109
sbsbag0
(g23
g2
Ntp5110
Rp5111
(dp5112
g6
g0
(g7
g2
Ntp5113
Rp5114
(dp5115
g11
g0
(g12
g13
(lp5116
g1395
ag1840
ag386
ag0
(g31
g2
Ntp5117
Rp5118
(dp5119
g6
g0
(g7
g2
Ntp5120
Rp5121
(dp5122
g11
g0
(g12
g13
(lp5123
g120
ag130
ag61
ag179
atp5124
Rp5125
sbsbag359
ag1123
ag1006
ag1123
ag997
atp5126
Rp5127
sbsbag0
(g23
g2
Ntp5128
Rp5129
(dp5130
g6
g0
(g7
g2
Ntp5131
Rp5132
(dp5133
g11
g0
(g12
g13
(lp5134
g2029
ag1903
ag2949
ag1858
ag1486
ag625
ag843
ag4884
ag2119
ag2326
ag2660
atp5135
Rp5136
sbsbag0
(g23
g2
Ntp5137
Rp5138
(dp5139
g6
g0
(g7
g2
Ntp5140
Rp5141
(dp5142
g11
g0
(g12
g13
(lp5143
g1087
ag2110
ag2083
ag113
ag1141
ag1296
ag688
atp5144
Rp5145
sbsbag0
(g23
g2
Ntp5146
Rp5147
(dp5148
g6
g0
(g7
g2
Ntp5149
Rp5150
(dp5151
g11
g0
(g12
g13
(lp5152
g2471
ag1159
ag470
ag0
(g31
g2
Ntp5153
Rp5154
(dp5155
g6
g0
(g7
g2
Ntp5156
Rp5157
(dp5158
g11
g0
(g12
g13
(lp5159
g71
ag130
ag140
ag81
ag179
ag169
ag189
atp5160
Rp5161
sbsbag1631
ag670
ag1114
ag816
ag1314
atp5162
Rp5163
sbsbag0
(g23
g2
Ntp5164
Rp5165
(dp5166
g6
g0
(g7
g2
Ntp5167
Rp5168
(dp5169
g11
g0
(g12
g13
(lp5170
g1722
ag1486
ag488
ag1767
atp5171
Rp5172
sbsbag0
(g23
g2
Ntp5173
Rp5174
(dp5175
g6
g0
(g7
g2
Ntp5176
Rp5177
(dp5178
g11
g0
(g12
g13
(lp5179
g2344
ag0
(g31
g2
Ntp5180
Rp5181
(dp5182
g6
g0
(g7
g2
Ntp5183
Rp5184
(dp5185
g11
g0
(g12
g13
(lp5186
g159
ag169
ag91
ag81
ag71
ag120
ag130
ag61
ag101
atp5187
Rp5188
sbsbag1767
ag2326
ag1749
ag4740
ag1141
ag634
ag724
ag3597
ag715
ag2110
ag1141
ag1350
ag907
ag266
atp5189
Rp5190
sbsbag0
(g23
g2
Ntp5191
Rp5192
(dp5193
g6
g0
(g7
g2
Ntp5194
Rp5195
(dp5196
g11
g0
(g12
g13
(lp5197
g442
ag2155
ag1540
ag2976
ag997
ag816
ag488
ag405
ag997
atp5198
Rp5199
sbsbatp5200
Rp5201
sbsbatp5202
Rp5203
sbsb.