ccopy_reg
_reconstructor
p0
(cmodel.content
Document
p1
c__builtin__
object
p2
Ntp3
Rp4
(dp5
S'elements'
p6
g0
(cmodel.content
Content_part
p7
g2
Ntp8
Rp9
(dp10
S'list'
p11
g0
(cmodel.container
List
p12
c__builtin__
list
p13
(lp14
g0
(cmodel.content
Paragraph
p15
g2
Ntp16
Rp17
(dp18
g6
g0
(g7
g2
Ntp19
Rp20
(dp21
g11
g0
(g12
g13
(lp22
g0
(cmodel.content
Sentence
p23
g2
Ntp24
Rp25
(dp26
g6
g0
(g7
g2
Ntp27
Rp28
(dp29
g11
g0
(g12
g13
(lp30
g0
(cmodel.content
Word
p31
g2
Ntp32
Rp33
(dp34
g6
g0
(g7
g2
Ntp35
Rp36
(dp37
g11
g0
(g12
g13
(lp38
g0
(cmodel.content
Char
p39
g2
Ntp40
Rp41
(dp42
g6
g0
(g7
g2
Ntp43
Rp44
(dp45
g11
g0
(g12
g13
(lp46
S'L'
p47
atp48
Rp49
sbsbag0
(g39
g2
Ntp50
Rp51
(dp52
g6
g0
(g7
g2
Ntp53
Rp54
(dp55
g11
g0
(g12
g13
(lp56
S'o'
p57
atp58
Rp59
sbsbag0
(g39
g2
Ntp60
Rp61
(dp62
g6
g0
(g7
g2
Ntp63
Rp64
(dp65
g11
g0
(g12
g13
(lp66
S'r'
p67
atp68
Rp69
sbsbag0
(g39
g2
Ntp70
Rp71
(dp72
g6
g0
(g7
g2
Ntp73
Rp74
(dp75
g11
g0
(g12
g13
(lp76
S'e'
p77
atp78
Rp79
sbsbag0
(g39
g2
Ntp80
Rp81
(dp82
g6
g0
(g7
g2
Ntp83
Rp84
(dp85
g11
g0
(g12
g13
(lp86
S'm'
p87
atp88
Rp89
sbsbatp90
Rp91
sbsbag0
(g31
g2
Ntp92
Rp93
(dp94
g6
g0
(g7
g2
Ntp95
Rp96
(dp97
g11
g0
(g12
g13
(lp98
g0
(g39
g2
Ntp99
Rp100
(dp101
g6
g0
(g7
g2
Ntp102
Rp103
(dp104
g11
g0
(g12
g13
(lp105
S'i'
p106
atp107
Rp108
sbsbag0
(g39
g2
Ntp109
Rp110
(dp111
g6
g0
(g7
g2
Ntp112
Rp113
(dp114
g11
g0
(g12
g13
(lp115
S'p'
p116
atp117
Rp118
sbsbag0
(g39
g2
Ntp119
Rp120
(dp121
g6
g0
(g7
g2
Ntp122
Rp123
(dp124
g11
g0
(g12
g13
(lp125
S's'
p126
atp127
Rp128
sbsbag0
(g39
g2
Ntp129
Rp130
(dp131
g6
g0
(g7
g2
Ntp132
Rp133
(dp134
g11
g0
(g12
g13
(lp135
S'u'
p136
atp137
Rp138
sbsbag81
atp139
Rp140
sbsbag0
(g31
g2
Ntp141
Rp142
(dp143
g6
g0
(g7
g2
Ntp144
Rp145
(dp146
g11
g0
(g12
g13
(lp147
g0
(g39
g2
Ntp148
Rp149
(dp150
g6
g0
(g7
g2
Ntp151
Rp152
(dp153
g11
g0
(g12
g13
(lp154
S'd'
p155
atp156
Rp157
sbsbag51
ag0
(g39
g2
Ntp158
Rp159
(dp160
g6
g0
(g7
g2
Ntp161
Rp162
(dp163
g11
g0
(g12
g13
(lp164
S'l'
p165
atp166
Rp167
sbsbag51
ag61
atp168
Rp169
sbsbag0
(g31
g2
Ntp170
Rp171
(dp172
g6
g0
(g7
g2
Ntp173
Rp174
(dp175
g11
g0
(g12
g13
(lp176
g120
ag100
ag0
(g39
g2
Ntp177
Rp178
(dp179
g6
g0
(g7
g2
Ntp180
Rp181
(dp182
g11
g0
(g12
g13
(lp183
S't'
p184
atp185
Rp186
sbsbatp187
Rp188
sbsbag0
(g31
g2
Ntp189
Rp190
(dp191
g6
g0
(g7
g2
Ntp192
Rp193
(dp194
g11
g0
(g12
g13
(lp195
g0
(g39
g2
Ntp196
Rp197
(dp198
g6
g0
(g7
g2
Ntp199
Rp200
(dp201
g11
g0
(g12
g13
(lp202
S'a'
p203
atp204
Rp205
sbsbag81
ag71
ag178
atp206
Rp207
sbsbag0
(g31
g2
Ntp208
Rp209
(dp210
g6
g0
(g7
g2
Ntp211
Rp212
(dp213
g11
g0
(g12
g13
(lp214
g0
(g39
g2
Ntp215
Rp216
(dp217
g6
g0
(g7
g2
Ntp218
Rp219
(dp220
g11
g0
(g12
g13
(lp221
S'c'
p222
atp223
Rp224
sbsbag51
ag0
(g39
g2
Ntp225
Rp226
(dp227
g6
g0
(g7
g2
Ntp228
Rp229
(dp230
g11
g0
(g12
g13
(lp231
S'n'
p232
atp233
Rp234
sbsbag120
ag71
ag216
ag178
ag71
ag178
ag130
ag61
atp235
Rp236
sbsbag0
(g31
g2
Ntp237
Rp238
(dp239
g6
g0
(g7
g2
Ntp240
Rp241
(dp242
g11
g0
(g12
g13
(lp243
g197
ag149
ag100
ag110
ag100
ag120
ag216
ag100
ag226
ag0
(g39
g2
Ntp244
Rp245
(dp246
g6
g0
(g7
g2
Ntp247
Rp248
(dp249
g11
g0
(g12
g13
(lp250
S'g'
p251
atp252
Rp253
sbsbatp254
Rp255
sbsbag0
(g31
g2
Ntp256
Rp257
(dp258
g6
g0
(g7
g2
Ntp259
Rp260
(dp261
g11
g0
(g12
g13
(lp262
g71
ag159
ag100
ag178
atp263
Rp264
sbsbatp265
Rp266
sbsbag0
(g23
g2
Ntp267
Rp268
(dp269
g6
g0
(g7
g2
Ntp270
Rp271
(dp272
g11
g0
(g12
g13
(lp273
g0
(g31
g2
Ntp274
Rp275
(dp276
g6
g0
(g7
g2
Ntp277
Rp278
(dp279
g11
g0
(g12
g13
(lp280
g0
(g39
g2
Ntp281
Rp282
(dp283
g6
g0
(g7
g2
Ntp284
Rp285
(dp286
g11
g0
(g12
g13
(lp287
S'M'
p288
atp289
Rp290
sbsbag51
ag61
ag0
(g39
g2
Ntp291
Rp292
(dp293
g6
g0
(g7
g2
Ntp294
Rp295
(dp296
g11
g0
(g12
g13
(lp297
S'b'
p298
atp299
Rp300
sbsbag100
atp301
Rp302
sbsbag0
(g31
g2
Ntp303
Rp304
(dp305
g6
g0
(g7
g2
Ntp306
Rp307
(dp308
g11
g0
(g12
g13
(lp309
g197
ag130
ag216
ag178
ag51
ag61
atp310
Rp311
sbsbag0
(g31
g2
Ntp312
Rp313
(dp314
g6
g0
(g7
g2
Ntp315
Rp316
(dp317
g11
g0
(g12
g13
(lp318
g120
ag197
ag110
ag100
ag71
ag226
atp319
Rp320
sbsbag0
(g31
g2
Ntp321
Rp322
(dp323
g6
g0
(g7
g2
Ntp324
Rp325
(dp326
g11
g0
(g12
g13
(lp327
g0
(g39
g2
Ntp328
Rp329
(dp330
g6
g0
(g7
g2
Ntp331
Rp332
(dp333
g11
g0
(g12
g13
(lp334
S'v'
p335
atp336
Rp337
sbsbag100
ag178
ag197
ag71
atp338
Rp339
sbsbag0
(g31
g2
Ntp340
Rp341
(dp342
g6
g0
(g7
g2
Ntp343
Rp344
(dp345
g11
g0
(g12
g13
(lp346
g159
ag100
ag292
ag71
ag61
ag51
atp347
Rp348
sbsbag0
(g31
g2
Ntp349
Rp350
(dp351
g6
g0
(g7
g2
Ntp352
Rp353
(dp354
g11
g0
(g12
g13
(lp355
g149
ag100
ag216
ag178
ag130
ag81
atp356
Rp357
sbsbag0
(g31
g2
Ntp358
Rp359
(dp360
g6
g0
(g7
g2
Ntp361
Rp362
(dp363
g11
g0
(g12
g13
(lp364
g51
ag61
ag226
ag197
ag61
ag71
atp365
Rp366
sbsbatp367
Rp368
sbsbag0
(g23
g2
Ntp369
Rp370
(dp371
g6
g0
(g7
g2
Ntp372
Rp373
(dp374
g11
g0
(g12
g13
(lp375
g0
(g31
g2
Ntp376
Rp377
(dp378
g6
g0
(g7
g2
Ntp379
Rp380
(dp381
g11
g0
(g12
g13
(lp382
g0
(g39
g2
Ntp383
Rp384
(dp385
g6
g0
(g7
g2
Ntp386
Rp387
(dp388
g11
g0
(g12
g13
(lp389
S'N'
p390
atp391
Rp392
sbsbag130
ag226
ag216
atp393
Rp394
sbsbag171
ag0
(g31
g2
Ntp395
Rp396
(dp397
g6
g0
(g7
g2
Ntp398
Rp399
(dp400
g11
g0
(g12
g13
(lp401
g197
ag81
ag71
ag178
atp402
Rp403
sbsbag0
(g31
g2
Ntp404
Rp405
(dp406
g6
g0
(g7
g2
Ntp407
Rp408
(dp409
g11
g0
(g12
g13
(lp410
g81
ag71
ag178
ag130
ag120
atp411
Rp412
sbsbag0
(g31
g2
Ntp413
Rp414
(dp415
g6
g0
(g7
g2
Ntp416
Rp417
(dp418
g11
g0
(g12
g13
(lp419
g120
ag197
ag245
ag100
ag178
ag178
ag100
ag120
atp420
Rp421
sbsbag0
(g31
g2
Ntp422
Rp423
(dp424
g6
g0
(g7
g2
Ntp425
Rp426
(dp427
g11
g0
(g12
g13
(lp428
g110
ag51
ag61
ag178
ag197
atp429
Rp430
sbsbag0
(g31
g2
Ntp431
Rp432
(dp433
g6
g0
(g7
g2
Ntp434
Rp435
(dp436
g11
g0
(g12
g13
(lp437
g226
ag100
ag292
ag0
(g39
g2
Ntp438
Rp439
(dp440
g6
g0
(g7
g2
Ntp441
Rp442
(dp443
g11
g0
(g12
g13
(lp444
S'h'
p445
atp446
Rp447
sbsbatp448
Rp449
sbsbag0
(g31
g2
Ntp450
Rp451
(dp452
g6
g0
(g7
g2
Ntp453
Rp454
(dp455
g11
g0
(g12
g13
(lp456
g71
ag245
ag71
ag178
atp457
Rp458
sbsbag0
(g31
g2
Ntp459
Rp460
(dp461
g6
g0
(g7
g2
Ntp462
Rp463
(dp464
g11
g0
(g12
g13
(lp465
g0
(g39
g2
Ntp466
Rp467
(dp468
g6
g0
(g7
g2
Ntp469
Rp470
(dp471
g11
g0
(g12
g13
(lp472
S'f'
p473
atp474
Rp475
sbsbag197
ag130
ag216
ag100
ag292
ag130
ag120
atp476
Rp477
sbsbag0
(g31
g2
Ntp478
Rp479
(dp480
g6
g0
(g7
g2
Ntp481
Rp482
(dp483
g11
g0
(g12
g13
(lp484
g71
ag120
ag178
atp485
Rp486
sbsbatp487
Rp488
sbsbag0
(g23
g2
Ntp489
Rp490
(dp491
g6
g0
(g7
g2
Ntp492
Rp493
(dp494
g11
g0
(g12
g13
(lp495
g0
(g31
g2
Ntp496
Rp497
(dp498
g6
g0
(g7
g2
Ntp499
Rp500
(dp501
g11
g0
(g12
g13
(lp502
g0
(g39
g2
Ntp503
Rp504
(dp505
g6
g0
(g7
g2
Ntp506
Rp507
(dp508
g11
g0
(g12
g13
(lp509
S'I'
p510
atp511
Rp512
sbsbag226
atp513
Rp514
sbsbag0
(g31
g2
Ntp515
Rp516
(dp517
g6
g0
(g7
g2
Ntp518
Rp519
(dp520
g11
g0
(g12
g13
(lp521
g71
ag178
atp522
Rp523
sbsbag0
(g31
g2
Ntp524
Rp525
(dp526
g6
g0
(g7
g2
Ntp527
Rp528
(dp529
g11
g0
(g12
g13
(lp530
g61
ag100
ag120
ag130
ag120
atp531
Rp532
sbsbag0
(g31
g2
Ntp533
Rp534
(dp535
g6
g0
(g7
g2
Ntp536
Rp537
(dp538
g11
g0
(g12
g13
(lp539
g130
ag159
ag159
ag197
ag81
ag216
ag51
ag61
ag110
ag71
ag61
atp540
Rp541
sbsbag0
(g31
g2
Ntp542
Rp543
(dp544
g6
g0
(g7
g2
Ntp545
Rp546
(dp547
g11
g0
(g12
g13
(lp548
g178
ag71
ag159
ag159
ag130
ag120
atp549
Rp550
sbsbag0
(g31
g2
Ntp551
Rp552
(dp553
g6
g0
(g7
g2
Ntp554
Rp555
(dp556
g11
g0
(g12
g13
(lp557
g149
ag100
ag245
ag226
ag100
ag120
ag120
ag100
ag81
atp558
Rp559
sbsbag0
(g31
g2
Ntp560
Rp561
(dp562
g6
g0
(g7
g2
Ntp563
Rp564
(dp565
g11
g0
(g12
g13
(lp566
g110
ag51
ag61
ag178
ag178
ag100
ag178
ag51
ag61
atp567
Rp568
sbsbag171
ag396
ag0
(g31
g2
Ntp569
Rp570
(dp571
g6
g0
(g7
g2
Ntp572
Rp573
(dp574
g11
g0
(g12
g13
(lp575
g120
ag197
ag245
ag100
ag178
ag178
ag100
ag120
atp576
Rp577
sbsbag0
(g31
g2
Ntp578
Rp579
(dp580
g6
g0
(g7
g2
Ntp581
Rp582
(dp583
g11
g0
(g12
g13
(lp584
g159
ag71
ag51
atp585
Rp586
sbsbatp587
Rp588
sbsbag0
(g23
g2
Ntp589
Rp590
(dp591
g6
g0
(g7
g2
Ntp592
Rp593
(dp594
g11
g0
(g12
g13
(lp595
g0
(g31
g2
Ntp596
Rp597
(dp598
g6
g0
(g7
g2
Ntp599
Rp600
(dp601
g11
g0
(g12
g13
(lp602
g0
(g39
g2
Ntp603
Rp604
(dp605
g6
g0
(g7
g2
Ntp606
Rp607
(dp608
g11
g0
(g12
g13
(lp609
S'A'
p610
atp611
Rp612
sbsbag159
ag100
ag0
(g39
g2
Ntp613
Rp614
(dp615
g6
g0
(g7
g2
Ntp616
Rp617
(dp618
g11
g0
(g12
g13
(lp619
S'q'
p620
atp621
Rp622
sbsbag130
ag197
ag81
atp623
Rp624
sbsbag0
(g31
g2
Ntp625
Rp626
(dp627
g6
g0
(g7
g2
Ntp628
Rp629
(dp630
g11
g0
(g12
g13
(lp631
g110
ag51
ag120
ag130
ag71
ag61
ag71
atp632
Rp633
sbsbag350
ag0
(g31
g2
Ntp634
Rp635
(dp636
g6
g0
(g7
g2
Ntp637
Rp638
(dp639
g11
g0
(g12
g13
(lp640
g130
ag61
ag226
ag197
atp641
Rp642
sbsbatp643
Rp644
sbsbag0
(g23
g2
Ntp645
Rp646
(dp647
g6
g0
(g7
g2
Ntp648
Rp649
(dp650
g11
g0
(g12
g13
(lp651
g0
(g31
g2
Ntp652
Rp653
(dp654
g6
g0
(g7
g2
Ntp655
Rp656
(dp657
g11
g0
(g12
g13
(lp658
g0
(g39
g2
Ntp659
Rp660
(dp661
g6
g0
(g7
g2
Ntp662
Rp663
(dp664
g11
g0
(g12
g13
(lp665
S'C'
p666
atp667
Rp668
sbsbag61
ag197
ag120
atp669
Rp670
sbsbag350
ag0
(g31
g2
Ntp671
Rp672
(dp673
g6
g0
(g7
g2
Ntp674
Rp675
(dp676
g11
g0
(g12
g13
(lp677
g159
ag100
ag245
ag130
ag159
ag197
atp678
Rp679
sbsbag0
(g31
g2
Ntp680
Rp681
(dp682
g6
g0
(g7
g2
Ntp683
Rp684
(dp685
g11
g0
(g12
g13
(lp686
g81
ag197
ag120
ag120
ag197
atp687
Rp688
sbsbag0
(g31
g2
Ntp689
Rp690
(dp691
g6
g0
(g7
g2
Ntp692
Rp693
(dp694
g11
g0
(g12
g13
(lp695
g71
ag130
atp696
Rp697
sbsbag238
ag0
(g31
g2
Ntp698
Rp699
(dp700
g6
g0
(g7
g2
Ntp701
Rp702
(dp703
g11
g0
(g12
g13
(lp704
g329
ag71
ag159
ag100
ag178
atp705
Rp706
sbsbag359
ag561
atp707
Rp708
sbsbag0
(g23
g2
Ntp709
Rp710
(dp711
g6
g0
(g7
g2
Ntp712
Rp713
(dp714
g11
g0
(g12
g13
(lp715
g0
(g31
g2
Ntp716
Rp717
(dp718
g6
g0
(g7
g2
Ntp719
Rp720
(dp721
g11
g0
(g12
g13
(lp722
g0
(g39
g2
Ntp723
Rp724
(dp725
g6
g0
(g7
g2
Ntp726
Rp727
(dp728
g11
g0
(g12
g13
(lp729
S'D'
p730
atp731
Rp732
sbsbag51
ag226
ag71
ag216
atp733
Rp734
sbsbag0
(g31
g2
Ntp735
Rp736
(dp737
g6
g0
(g7
g2
Ntp738
Rp739
(dp740
g11
g0
(g12
g13
(lp741
g159
ag71
ag216
ag178
ag130
ag120
atp742
Rp743
sbsbag0
(g31
g2
Ntp744
Rp745
(dp746
g6
g0
(g7
g2
Ntp747
Rp748
(dp749
g11
g0
(g12
g13
(lp750
g61
ag100
ag120
ag130
ag120
atp751
Rp752
sbsbag0
(g31
g2
Ntp753
Rp754
(dp755
g6
g0
(g7
g2
Ntp756
Rp757
(dp758
g11
g0
(g12
g13
(lp759
g216
ag51
ag226
ag329
ag197
ag159
ag159
ag100
ag120
atp760
Rp761
sbsbag171
ag396
ag0
(g31
g2
Ntp762
Rp763
(dp764
g6
g0
(g7
g2
Ntp765
Rp766
(dp767
g11
g0
(g12
g13
(lp768
g226
ag100
ag120
ag159
atp769
Rp770
sbsbag0
(g31
g2
Ntp771
Rp772
(dp773
g6
g0
(g7
g2
Ntp774
Rp775
(dp776
g11
g0
(g12
g13
(lp777
g130
ag178
atp778
Rp779
sbsbag0
(g31
g2
Ntp780
Rp781
(dp782
g6
g0
(g7
g2
Ntp783
Rp784
(dp785
g11
g0
(g12
g13
(lp786
g329
ag71
ag439
ag100
ag216
ag130
ag159
ag197
atp787
Rp788
sbsbag0
(g31
g2
Ntp789
Rp790
(dp791
g6
g0
(g7
g2
Ntp792
Rp793
(dp794
g11
g0
(g12
g13
(lp795
g197
ag159
ag100
ag614
ag130
ag197
ag81
atp796
Rp797
sbsbag0
(g31
g2
Ntp798
Rp799
(dp800
g6
g0
(g7
g2
Ntp801
Rp802
(dp803
g11
g0
(g12
g13
(lp804
g159
ag51
ag61
ag71
ag81
atp805
Rp806
sbsbatp807
Rp808
sbsbag0
(g23
g2
Ntp809
Rp810
(dp811
g6
g0
(g7
g2
Ntp812
Rp813
(dp814
g11
g0
(g12
g13
(lp815
g0
(g31
g2
Ntp816
Rp817
(dp818
g6
g0
(g7
g2
Ntp819
Rp820
(dp821
g11
g0
(g12
g13
(lp822
g604
ag71
ag226
ag71
ag197
ag226
atp823
Rp824
sbsbag0
(g31
g2
Ntp825
Rp826
(dp827
g6
g0
(g7
g2
Ntp828
Rp829
(dp830
g11
g0
(g12
g13
(lp831
g120
ag51
ag149
ag197
ag159
ag71
ag120
atp832
Rp833
sbsbag0
(g31
g2
Ntp834
Rp835
(dp836
g6
g0
(g7
g2
Ntp837
Rp838
(dp839
g11
g0
(g12
g13
(lp840
g71
ag61
ag51
ag120
atp841
Rp842
sbsbag0
(g31
g2
Ntp843
Rp844
(dp845
g6
g0
(g7
g2
Ntp846
Rp847
(dp848
g11
g0
(g12
g13
(lp849
g120
ag71
ag149
atp850
Rp851
sbsbag0
(g31
g2
Ntp852
Rp853
(dp854
g6
g0
(g7
g2
Ntp855
Rp856
(dp857
g11
g0
(g12
g13
(lp858
g120
ag51
ag159
ag159
ag100
ag216
ag100
ag178
ag130
ag149
ag100
ag226
atp859
Rp860
sbsbag0
(g31
g2
Ntp861
Rp862
(dp863
g6
g0
(g7
g2
Ntp864
Rp865
(dp866
g11
g0
(g12
g13
(lp867
g110
ag51
ag61
ag178
ag178
ag100
ag178
ag51
ag61
atp868
Rp869
sbsbag0
(g31
g2
Ntp870
Rp871
(dp872
g6
g0
(g7
g2
Ntp873
Rp874
(dp875
g11
g0
(g12
g13
(lp876
g81
ag100
atp877
Rp878
sbsbag0
(g31
g2
Ntp879
Rp880
(dp881
g6
g0
(g7
g2
Ntp882
Rp883
(dp884
g11
g0
(g12
g13
(lp885
g120
ag71
ag81
atp886
Rp887
sbsbag0
(g31
g2
Ntp888
Rp889
(dp890
g6
g0
(g7
g2
Ntp891
Rp892
(dp893
g11
g0
(g12
g13
(lp894
g329
ag100
ag329
ag71
ag61
ag61
ag197
atp895
Rp896
sbsbag0
(g31
g2
Ntp897
Rp898
(dp899
g6
g0
(g7
g2
Ntp900
Rp901
(dp902
g11
g0
(g12
g13
(lp903
g71
ag120
ag178
atp904
Rp905
sbsbag0
(g31
g2
Ntp906
Rp907
(dp908
g6
g0
(g7
g2
Ntp909
Rp910
(dp911
g11
g0
(g12
g13
(lp912
g71
ag245
ag71
ag178
atp913
Rp914
sbsbag0
(g31
g2
Ntp915
Rp916
(dp917
g6
g0
(g7
g2
Ntp918
Rp919
(dp920
g11
g0
(g12
g13
(lp921
g149
ag197
ag110
ag100
ag292
ag130
ag120
atp922
Rp923
sbsbag871
ag0
(g31
g2
Ntp924
Rp925
(dp926
g6
g0
(g7
g2
Ntp927
Rp928
(dp929
g11
g0
(g12
g13
(lp930
g81
ag197
ag130
ag61
ag100
ag120
atp931
Rp932
sbsbag0
(g31
g2
Ntp933
Rp934
(dp935
g6
g0
(g7
g2
Ntp936
Rp937
(dp938
g11
g0
(g12
g13
(lp939
g226
ag51
ag226
atp940
Rp941
sbsbag0
(g31
g2
Ntp942
Rp943
(dp944
g6
g0
(g7
g2
Ntp945
Rp946
(dp947
g11
g0
(g12
g13
(lp948
g178
ag51
ag61
ag178
ag51
ag61
atp949
Rp950
sbsbatp951
Rp952
sbsbag0
(g23
g2
Ntp953
Rp954
(dp955
g6
g0
(g7
g2
Ntp956
Rp957
(dp958
g11
g0
(g12
g13
(lp959
g0
(g31
g2
Ntp960
Rp961
(dp962
g6
g0
(g7
g2
Ntp963
Rp964
(dp965
g11
g0
(g12
g13
(lp966
g0
(g39
g2
Ntp967
Rp968
(dp969
g6
g0
(g7
g2
Ntp970
Rp971
(dp972
g11
g0
(g12
g13
(lp973
S'P'
p974
atp975
Rp976
sbsbag61
ag51
ag100
ag226
atp977
Rp978
sbsbag0
(g31
g2
Ntp979
Rp980
(dp981
g6
g0
(g7
g2
Ntp982
Rp983
(dp984
g11
g0
(g12
g13
(lp985
g329
ag71
ag226
ag71
ag226
ag197
ag178
ag100
ag120
atp986
Rp987
sbsbag561
ag0
(g31
g2
Ntp988
Rp989
(dp990
g6
g0
(g7
g2
Ntp991
Rp992
(dp993
g11
g0
(g12
g13
(lp994
g51
ag61
ag216
ag100
atp995
Rp996
sbsbag0
(g31
g2
Ntp997
Rp998
(dp999
g6
g0
(g7
g2
Ntp1000
Rp1001
(dp1002
g11
g0
(g12
g13
(lp1003
g329
ag71
ag159
atp1004
Rp1005
sbsbag0
(g31
g2
Ntp1006
Rp1007
(dp1008
g6
g0
(g7
g2
Ntp1009
Rp1010
(dp1011
g11
g0
(g12
g13
(lp1012
g467
ag71
ag61
ag81
ag71
ag226
ag178
ag130
ag81
atp1013
Rp1014
sbsbag257
ag0
(g31
g2
Ntp1015
Rp1016
(dp1017
g6
g0
(g7
g2
Ntp1018
Rp1019
(dp1020
g11
g0
(g12
g13
(lp1021
g159
ag51
ag292
ag51
ag61
ag178
ag100
ag120
atp1022
Rp1023
sbsbag998
atp1024
Rp1025
sbsbag0
(g23
g2
Ntp1026
Rp1027
(dp1028
g6
g0
(g7
g2
Ntp1029
Rp1030
(dp1031
g11
g0
(g12
g13
(lp1032
g0
(g31
g2
Ntp1033
Rp1034
(dp1035
g6
g0
(g7
g2
Ntp1036
Rp1037
(dp1038
g11
g0
(g12
g13
(lp1039
g0
(g39
g2
Ntp1040
Rp1041
(dp1042
g6
g0
(g7
g2
Ntp1043
Rp1044
(dp1045
g11
g0
(g12
g13
(lp1046
S'S'
p1047
atp1048
Rp1049
sbsbag71
ag149
atp1050
Rp1051
sbsbag980
ag0
(g31
g2
Ntp1052
Rp1053
(dp1054
g6
g0
(g7
g2
Ntp1055
Rp1056
(dp1057
g11
g0
(g12
g13
(lp1058
g0
(g39
g2
Ntp1059
Rp1060
(dp1061
g6
g0
(g7
g2
Ntp1062
Rp1063
(dp1064
g11
g0
(g12
g13
(lp1065
S'j'
p1066
atp1067
Rp1068
sbsbag130
ag120
ag178
ag51
atp1069
Rp1070
sbsbag998
ag0
(g31
g2
Ntp1071
Rp1072
(dp1073
g6
g0
(g7
g2
Ntp1074
Rp1075
(dp1076
g11
g0
(g12
g13
(lp1077
g467
ag61
ag100
ag226
ag245
ag100
ag159
ag159
ag197
atp1078
Rp1079
sbsbag0
(g31
g2
Ntp1080
Rp1081
(dp1082
g6
g0
(g7
g2
Ntp1083
Rp1084
(dp1085
g11
g0
(g12
g13
(lp1086
g216
ag130
ag61
ag120
ag130
ag120
atp1087
Rp1088
sbsbatp1089
Rp1090
sbsbag0
(g23
g2
Ntp1091
Rp1092
(dp1093
g6
g0
(g7
g2
Ntp1094
Rp1095
(dp1096
g11
g0
(g12
g13
(lp1097
g0
(g31
g2
Ntp1098
Rp1099
(dp1100
g6
g0
(g7
g2
Ntp1101
Rp1102
(dp1103
g11
g0
(g12
g13
(lp1104
g0
(g39
g2
Ntp1105
Rp1106
(dp1107
g6
g0
(g7
g2
Ntp1108
Rp1109
(dp1110
g11
g0
(g12
g13
(lp1111
S'V'
p1112
atp1113
Rp1114
sbsbag100
ag329
ag197
ag81
ag130
ag120
atp1115
Rp1116
sbsbag0
(g31
g2
Ntp1117
Rp1118
(dp1119
g6
g0
(g7
g2
Ntp1120
Rp1121
(dp1122
g11
g0
(g12
g13
(lp1123
g120
ag71
ag81
ag110
ag71
ag61
atp1124
Rp1125
sbsbag0
(g31
g2
Ntp1126
Rp1127
(dp1128
g6
g0
(g7
g2
Ntp1129
Rp1130
(dp1131
g11
g0
(g12
g13
(lp1132
g226
ag71
ag614
ag130
ag71
atp1133
Rp1134
sbsbag0
(g31
g2
Ntp1135
Rp1136
(dp1137
g6
g0
(g7
g2
Ntp1138
Rp1139
(dp1140
g11
g0
(g12
g13
(lp1141
g71
ag159
ag100
ag178
atp1142
Rp1143
sbsbag998
ag0
(g31
g2
Ntp1144
Rp1145
(dp1146
g6
g0
(g7
g2
Ntp1147
Rp1148
(dp1149
g11
g0
(g12
g13
(lp1150
g245
ag61
ag197
ag329
ag100
ag149
ag197
atp1151
Rp1152
sbsbag672
ag0
(g31
g2
Ntp1153
Rp1154
(dp1155
g6
g0
(g7
g2
Ntp1156
Rp1157
(dp1158
g11
g0
(g12
g13
(lp1159
g216
ag51
ag81
ag81
ag51
ag149
ag51
atp1160
Rp1161
sbsbag552
atp1162
Rp1163
sbsbag0
(g23
g2
Ntp1164
Rp1165
(dp1166
g6
g0
(g7
g2
Ntp1167
Rp1168
(dp1169
g11
g0
(g12
g13
(lp1170
g1099
ag0
(g31
g2
Ntp1171
Rp1172
(dp1173
g6
g0
(g7
g2
Ntp1174
Rp1175
(dp1176
g11
g0
(g12
g13
(lp1177
g61
ag439
ag51
ag226
ag216
ag130
ag120
atp1178
Rp1179
sbsbag579
ag0
(g31
g2
Ntp1180
Rp1181
(dp1182
g6
g0
(g7
g2
Ntp1183
Rp1184
(dp1185
g11
g0
(g12
g13
(lp1186
g130
ag178
atp1187
Rp1188
sbsbag0
(g31
g2
Ntp1189
Rp1190
(dp1191
g6
g0
(g7
g2
Ntp1192
Rp1193
(dp1194
g11
g0
(g12
g13
(lp1195
g159
ag197
ag216
ag130
ag120
atp1196
Rp1197
sbsbag0
(g31
g2
Ntp1198
Rp1199
(dp1200
g6
g0
(g7
g2
Ntp1201
Rp1202
(dp1203
g11
g0
(g12
g13
(lp1204
g110
ag439
ag197
ag61
ag71
ag178
ag61
ag197
atp1205
Rp1206
sbsbag0
(g31
g2
Ntp1207
Rp1208
(dp1209
g6
g0
(g7
g2
Ntp1210
Rp1211
(dp1212
g11
g0
(g12
g13
(lp1213
g329
ag71
ag120
ag178
ag100
ag292
ag130
ag159
ag130
ag81
atp1214
Rp1215
sbsbatp1216
Rp1217
sbsbag0
(g23
g2
Ntp1218
Rp1219
(dp1220
g6
g0
(g7
g2
Ntp1221
Rp1222
(dp1223
g11
g0
(g12
g13
(lp1224
g653
ag0
(g31
g2
Ntp1225
Rp1226
(dp1227
g6
g0
(g7
g2
Ntp1228
Rp1229
(dp1230
g11
g0
(g12
g13
(lp1231
g226
ag71
ag216
atp1232
Rp1233
sbsbag341
ag1181
ag635
ag0
(g31
g2
Ntp1234
Rp1235
(dp1236
g6
g0
(g7
g2
Ntp1237
Rp1238
(dp1239
g11
g0
(g12
g13
(lp1240
g197
ag216
ag216
ag130
ag81
ag120
ag197
ag226
atp1241
Rp1242
sbsbag916
ag1226
ag516
ag0
(g31
g2
Ntp1243
Rp1244
(dp1245
g6
g0
(g7
g2
Ntp1246
Rp1247
(dp1248
g11
g0
(g12
g13
(lp1249
g197
ag226
ag178
ag71
atp1250
Rp1251
sbsbatp1252
Rp1253
sbsbag0
(g23
g2
Ntp1254
Rp1255
(dp1256
g6
g0
(g7
g2
Ntp1257
Rp1258
(dp1259
g11
g0
(g12
g13
(lp1260
g0
(g31
g2
Ntp1261
Rp1262
(dp1263
g6
g0
(g7
g2
Ntp1264
Rp1265
(dp1266
g11
g0
(g12
g13
(lp1267
g0
(g39
g2
Ntp1268
Rp1269
(dp1270
g6
g0
(g7
g2
Ntp1271
Rp1272
(dp1273
g11
g0
(g12
g13
(lp1274
S'U'
p1275
atp1276
Rp1277
sbsbag178
atp1278
Rp1279
sbsbag171
ag396
ag0
(g31
g2
Ntp1280
Rp1281
(dp1282
g6
g0
(g7
g2
Ntp1283
Rp1284
(dp1285
g11
g0
(g12
g13
(lp1286
g149
ag130
ag100
atp1287
Rp1288
sbsbag0
(g31
g2
Ntp1289
Rp1290
(dp1291
g6
g0
(g7
g2
Ntp1292
Rp1293
(dp1294
g11
g0
(g12
g13
(lp1295
g100
ag226
atp1296
Rp1297
sbsbag0
(g31
g2
Ntp1298
Rp1299
(dp1300
g6
g0
(g7
g2
Ntp1301
Rp1302
(dp1303
g11
g0
(g12
g13
(lp1304
g71
ag226
ag100
ag81
atp1305
Rp1306
sbsbag0
(g31
g2
Ntp1307
Rp1308
(dp1309
g6
g0
(g7
g2
Ntp1310
Rp1311
(dp1312
g11
g0
(g12
g13
(lp1313
g100
ag81
ag110
ag71
ag61
ag149
ag100
ag71
ag178
atp1314
Rp1315
sbsbag0
(g31
g2
Ntp1316
Rp1317
(dp1318
g6
g0
(g7
g2
Ntp1319
Rp1320
(dp1321
g11
g0
(g12
g13
(lp1322
g439
ag71
ag226
ag149
ag61
ag71
ag61
ag100
ag178
atp1323
Rp1324
sbsbatp1325
Rp1326
sbsbag0
(g23
g2
Ntp1327
Rp1328
(dp1329
g6
g0
(g7
g2
Ntp1330
Rp1331
(dp1332
g11
g0
(g12
g13
(lp1333
g0
(g31
g2
Ntp1334
Rp1335
(dp1336
g6
g0
(g7
g2
Ntp1337
Rp1338
(dp1339
g11
g0
(g12
g13
(lp1340
g504
ag226
ag178
ag71
ag245
ag71
ag61
atp1341
Rp1342
sbsbag0
(g31
g2
Ntp1343
Rp1344
(dp1345
g6
g0
(g7
g2
Ntp1346
Rp1347
(dp1348
g11
g0
(g12
g13
(lp1349
g61
ag130
ag178
ag61
ag130
ag81
atp1350
Rp1351
sbsbag0
(g31
g2
Ntp1352
Rp1353
(dp1354
g6
g0
(g7
g2
Ntp1355
Rp1356
(dp1357
g11
g0
(g12
g13
(lp1358
g110
ag130
ag61
ag130
ag120
atp1359
Rp1360
sbsbag690
ag0
(g31
g2
Ntp1361
Rp1362
(dp1363
g6
g0
(g7
g2
Ntp1364
Rp1365
(dp1366
g11
g0
(g12
g13
(lp1367
g120
ag51
ag149
ag197
ag159
ag71
ag120
atp1368
Rp1369
sbsbag0
(g31
g2
Ntp1370
Rp1371
(dp1372
g6
g0
(g7
g2
Ntp1373
Rp1374
(dp1375
g11
g0
(g12
g13
(lp1376
g467
ag61
ag100
ag226
ag245
ag100
ag159
ag159
ag197
atp1377
Rp1378
sbsbag525
ag635
ag0
(g31
g2
Ntp1379
Rp1380
(dp1381
g6
g0
(g7
g2
Ntp1382
Rp1383
(dp1384
g11
g0
(g12
g13
(lp1385
g71
ag245
ag71
ag120
ag178
ag197
ag120
atp1386
Rp1387
sbsbag0
(g31
g2
Ntp1388
Rp1389
(dp1390
g6
g0
(g7
g2
Ntp1391
Rp1392
(dp1393
g11
g0
(g12
g13
(lp1394
g81
ag100
atp1395
Rp1396
sbsbag934
ag1172
ag1190
ag1127
ag516
ag1127
atp1397
Rp1398
sbsbatp1399
Rp1400
sbsbag0
(g15
g2
Ntp1401
Rp1402
(dp1403
g6
g0
(g7
g2
Ntp1404
Rp1405
(dp1406
g11
g0
(g12
g13
(lp1407
g0
(g23
g2
Ntp1408
Rp1409
(dp1410
g6
g0
(g7
g2
Ntp1411
Rp1412
(dp1413
g11
g0
(g12
g13
(lp1414
g0
(g31
g2
Ntp1415
Rp1416
(dp1417
g6
g0
(g7
g2
Ntp1418
Rp1419
(dp1420
g11
g0
(g12
g13
(lp1421
g1041
ag130
ag120
ag110
ag71
ag226
ag149
ag100
ag120
ag120
ag71
atp1422
Rp1423
sbsbag0
(g31
g2
Ntp1424
Rp1425
(dp1426
g6
g0
(g7
g2
Ntp1427
Rp1428
(dp1429
g11
g0
(g12
g13
(lp1430
g178
ag100
ag226
ag216
ag100
ag149
ag130
ag226
ag178
atp1431
Rp1432
sbsbag257
ag934
ag0
(g31
g2
Ntp1433
Rp1434
(dp1435
g6
g0
(g7
g2
Ntp1436
Rp1437
(dp1438
g11
g0
(g12
g13
(lp1439
g71
ag130
ag100
ag120
ag81
ag51
ag149
atp1440
Rp1441
sbsbag0
(g31
g2
Ntp1442
Rp1443
(dp1444
g6
g0
(g7
g2
Ntp1445
Rp1446
(dp1447
g11
g0
(g12
g13
(lp1448
g130
ag159
ag159
ag197
ag81
ag216
ag51
ag61
ag110
ag71
ag61
atp1449
Rp1450
sbsbag1244
ag880
ag0
(g31
g2
Ntp1451
Rp1452
(dp1453
g6
g0
(g7
g2
Ntp1454
Rp1455
(dp1456
g11
g0
(g12
g13
(lp1457
g71
ag159
ag71
ag81
ag71
ag226
ag178
ag130
ag81
atp1458
Rp1459
sbsbag0
(g31
g2
Ntp1460
Rp1461
(dp1462
g6
g0
(g7
g2
Ntp1463
Rp1464
(dp1465
g11
g0
(g12
g13
(lp1466
g81
ag71
ag178
ag130
ag120
atp1467
Rp1468
sbsbag844
ag1208
ag0
(g31
g2
Ntp1469
Rp1470
(dp1471
g6
g0
(g7
g2
Ntp1472
Rp1473
(dp1474
g11
g0
(g12
g13
(lp1475
g51
ag149
ag100
ag51
atp1476
Rp1477
sbsbag1281
ag0
(g31
g2
Ntp1478
Rp1479
(dp1480
g6
g0
(g7
g2
Ntp1481
Rp1482
(dp1483
g11
g0
(g12
g13
(lp1484
g197
atp1485
Rp1486
sbsbag943
atp1487
Rp1488
sbsbag0
(g23
g2
Ntp1489
Rp1490
(dp1491
g6
g0
(g7
g2
Ntp1492
Rp1493
(dp1494
g11
g0
(g12
g13
(lp1495
g717
ag579
ag0
(g31
g2
Ntp1496
Rp1497
(dp1498
g6
g0
(g7
g2
Ntp1499
Rp1500
(dp1501
g11
g0
(g12
g13
(lp1502
g149
ag100
ag197
ag81
atp1503
Rp1504
sbsbag534
ag907
ag0
(g31
g2
Ntp1505
Rp1506
(dp1507
g6
g0
(g7
g2
Ntp1508
Rp1509
(dp1510
g11
g0
(g12
g13
(lp1511
g81
ag51
ag159
ag159
ag100
ag120
atp1512
Rp1513
sbsbag0
(g31
g2
Ntp1514
Rp1515
(dp1516
g6
g0
(g7
g2
Ntp1517
Rp1518
(dp1519
g11
g0
(g12
g13
(lp1520
g226
ag71
ag216
atp1521
Rp1522
sbsbag1208
ag0
(g31
g2
Ntp1523
Rp1524
(dp1525
g6
g0
(g7
g2
Ntp1526
Rp1527
(dp1528
g11
g0
(g12
g13
(lp1529
g614
ag130
ag100
ag120
atp1530
Rp1531
sbsbag479
atp1532
Rp1533
sbsbag0
(g23
g2
Ntp1534
Rp1535
(dp1536
g6
g0
(g7
g2
Ntp1537
Rp1538
(dp1539
g11
g0
(g12
g13
(lp1540
g717
ag209
ag552
ag93
ag322
ag0
(g31
g2
Ntp1541
Rp1542
(dp1543
g6
g0
(g7
g2
Ntp1544
Rp1545
(dp1546
g11
g0
(g12
g13
(lp1547
g159
ag197
ag51
ag61
ag71
ag71
ag178
atp1548
Rp1549
sbsbatp1550
Rp1551
sbsbag0
(g23
g2
Ntp1552
Rp1553
(dp1554
g6
g0
(g7
g2
Ntp1555
Rp1556
(dp1557
g11
g0
(g12
g13
(lp1558
g0
(g31
g2
Ntp1559
Rp1560
(dp1561
g6
g0
(g7
g2
Ntp1562
Rp1563
(dp1564
g11
g0
(g12
g13
(lp1565
g724
ag130
ag100
ag120
atp1566
Rp1567
sbsbag998
ag699
ag93
atp1568
Rp1569
sbsbag0
(g23
g2
Ntp1570
Rp1571
(dp1572
g6
g0
(g7
g2
Ntp1573
Rp1574
(dp1575
g11
g0
(g12
g13
(lp1576
g0
(g31
g2
Ntp1577
Rp1578
(dp1579
g6
g0
(g7
g2
Ntp1580
Rp1581
(dp1582
g11
g0
(g12
g13
(lp1583
g0
(g39
g2
Ntp1584
Rp1585
(dp1586
g6
g0
(g7
g2
Ntp1587
Rp1588
(dp1589
g11
g0
(g12
g13
(lp1590
S'E'
p1591
atp1592
Rp1593
sbsbag178
ag100
ag197
ag81
atp1594
Rp1595
sbsbag0
(g31
g2
Ntp1596
Rp1597
(dp1598
g6
g0
(g7
g2
Ntp1599
Rp1600
(dp1601
g11
g0
(g12
g13
(lp1602
g329
ag71
ag226
ag71
ag226
ag197
ag178
ag100
ag120
atp1603
Rp1604
sbsbag0
(g31
g2
Ntp1605
Rp1606
(dp1607
g6
g0
(g7
g2
Ntp1608
Rp1609
(dp1610
g11
g0
(g12
g13
(lp1611
g467
ag71
ag159
ag100
ag120
atp1612
Rp1613
sbsbag0
(g31
g2
Ntp1614
Rp1615
(dp1616
g6
g0
(g7
g2
Ntp1617
Rp1618
(dp1619
g11
g0
(g12
g13
(lp1620
g197
ag178
atp1621
Rp1622
sbsbag0
(g31
g2
Ntp1623
Rp1624
(dp1625
g6
g0
(g7
g2
Ntp1626
Rp1627
(dp1628
g11
g0
(g12
g13
(lp1629
g120
ag216
ag71
ag159
ag71
ag61
ag100
ag120
ag614
ag130
ag71
atp1630
Rp1631
sbsbag0
(g31
g2
Ntp1632
Rp1633
(dp1634
g6
g0
(g7
g2
Ntp1635
Rp1636
(dp1637
g11
g0
(g12
g13
(lp1638
g197
ag149
ag100
ag110
ag100
ag120
ag216
ag100
ag226
ag245
atp1639
Rp1640
sbsbag0
(g31
g2
Ntp1641
Rp1642
(dp1643
g6
g0
(g7
g2
Ntp1644
Rp1645
(dp1646
g11
g0
(g12
g13
(lp1647
g81
ag197
ag245
ag226
ag197
atp1648
Rp1649
sbsbag0
(g31
g2
Ntp1650
Rp1651
(dp1652
g6
g0
(g7
g2
Ntp1653
Rp1654
(dp1655
g11
g0
(g12
g13
(lp1656
g226
ag130
ag226
ag216
atp1657
Rp1658
sbsbag0
(g31
g2
Ntp1659
Rp1660
(dp1661
g6
g0
(g7
g2
Ntp1662
Rp1663
(dp1664
g11
g0
(g12
g13
(lp1665
g71
ag159
ag71
ag100
ag467
ag71
ag226
ag149
atp1666
Rp1667
sbsbag0
(g31
g2
Ntp1668
Rp1669
(dp1670
g6
g0
(g7
g2
Ntp1671
Rp1672
(dp1673
g11
g0
(g12
g13
(lp1674
g614
ag130
ag197
ag81
atp1675
Rp1676
sbsbag934
ag1199
ag1299
ag93
ag322
ag579
atp1677
Rp1678
sbsbag0
(g23
g2
Ntp1679
Rp1680
(dp1681
g6
g0
(g7
g2
Ntp1682
Rp1683
(dp1684
g11
g0
(g12
g13
(lp1685
g961
ag0
(g31
g2
Ntp1686
Rp1687
(dp1688
g6
g0
(g7
g2
Ntp1689
Rp1690
(dp1691
g11
g0
(g12
g13
(lp1692
g329
ag71
ag120
ag178
ag100
ag292
ag130
ag159
ag130
ag81
atp1693
Rp1694
sbsbag0
(g31
g2
Ntp1695
Rp1696
(dp1697
g6
g0
(g7
g2
Ntp1698
Rp1699
(dp1700
g11
g0
(g12
g13
(lp1701
g71
ag61
ag197
ag178
atp1702
Rp1703
sbsbag1181
ag0
(g31
g2
Ntp1704
Rp1705
(dp1706
g6
g0
(g7
g2
Ntp1707
Rp1708
(dp1709
g11
g0
(g12
g13
(lp1710
g120
ag130
ag120
ag216
ag100
ag110
ag100
ag178
atp1711
Rp1712
sbsbag0
(g31
g2
Ntp1713
Rp1714
(dp1715
g6
g0
(g7
g2
Ntp1716
Rp1717
(dp1718
g11
g0
(g12
g13
(lp1719
g71
ag159
ag71
ag100
ag467
ag71
ag226
ag149
atp1720
Rp1721
sbsbag341
ag871
ag1072
ag0
(g31
g2
Ntp1722
Rp1723
(dp1724
g6
g0
(g7
g2
Ntp1725
Rp1726
(dp1727
g11
g0
(g12
g13
(lp1728
g110
ag130
ag61
ag130
ag120
atp1729
Rp1730
sbsbag0
(g31
g2
Ntp1731
Rp1732
(dp1733
g6
g0
(g7
g2
Ntp1734
Rp1735
(dp1736
g11
g0
(g12
g13
(lp1737
g100
ag149
atp1738
Rp1739
sbsbag1235
ag880
ag1353
ag1732
ag257
atp1740
Rp1741
sbsbag0
(g23
g2
Ntp1742
Rp1743
(dp1744
g6
g0
(g7
g2
Ntp1745
Rp1746
(dp1747
g11
g0
(g12
g13
(lp1748
g653
ag998
ag579
ag835
atp1749
Rp1750
sbsbatp1751
Rp1752
sbsbag0
(g15
g2
Ntp1753
Rp1754
(dp1755
g6
g0
(g7
g2
Ntp1756
Rp1757
(dp1758
g11
g0
(g12
g13
(lp1759
g0
(g23
g2
Ntp1760
Rp1761
(dp1762
g6
g0
(g7
g2
Ntp1763
Rp1764
(dp1765
g11
g0
(g12
g13
(lp1766
g0
(g31
g2
Ntp1767
Rp1768
(dp1769
g6
g0
(g7
g2
Ntp1770
Rp1771
(dp1772
g11
g0
(g12
g13
(lp1773
g968
ag439
ag197
ag120
ag71
ag159
ag159
ag130
ag120
atp1774
Rp1775
sbsbag322
ag0
(g31
g2
Ntp1776
Rp1777
(dp1778
g6
g0
(g7
g2
Ntp1779
Rp1780
(dp1781
g11
g0
(g12
g13
(lp1782
g130
ag159
ag178
ag61
ag100
ag216
ag71
ag120
atp1783
Rp1784
sbsbag1127
atp1785
Rp1786
sbsbag0
(g23
g2
Ntp1787
Rp1788
(dp1789
g6
g0
(g7
g2
Ntp1790
Rp1791
(dp1792
g11
g0
(g12
g13
(lp1793
g1768
ag171
ag396
ag835
ag257
atp1794
Rp1795
sbsbag0
(g23
g2
Ntp1796
Rp1797
(dp1798
g6
g0
(g7
g2
Ntp1799
Rp1800
(dp1801
g11
g0
(g12
g13
(lp1802
g275
ag916
ag423
ag0
(g31
g2
Ntp1803
Rp1804
(dp1805
g6
g0
(g7
g2
Ntp1806
Rp1807
(dp1808
g11
g0
(g12
g13
(lp1809
g81
ag197
ag178
ag178
ag100
ag120
atp1810
Rp1811
sbsbatp1812
Rp1813
sbsbag0
(g23
g2
Ntp1814
Rp1815
(dp1816
g6
g0
(g7
g2
Ntp1817
Rp1818
(dp1819
g11
g0
(g12
g13
(lp1820
g1335
ag1181
ag790
ag0
(g31
g2
Ntp1821
Rp1822
(dp1823
g6
g0
(g7
g2
Ntp1824
Rp1825
(dp1826
g11
g0
(g12
g13
(lp1827
g51
ag61
ag216
ag100
atp1828
Rp1829
sbsbatp1830
Rp1831
sbsbag0
(g23
g2
Ntp1832
Rp1833
(dp1834
g6
g0
(g7
g2
Ntp1835
Rp1836
(dp1837
g11
g0
(g12
g13
(lp1838
g377
ag1705
ag0
(g31
g2
Ntp1839
Rp1840
(dp1841
g6
g0
(g7
g2
Ntp1842
Rp1843
(dp1844
g11
g0
(g12
g13
(lp1845
g178
ag130
ag61
ag110
ag100
ag120
atp1846
Rp1847
sbsbag1226
ag871
ag0
(g31
g2
Ntp1848
Rp1849
(dp1850
g6
g0
(g7
g2
Ntp1851
Rp1852
(dp1853
g11
g0
(g12
g13
(lp1854
g71
ag245
ag71
ag120
ag178
ag197
ag120
atp1855
Rp1856
sbsbag907
ag1506
ag1696
ag0
(g31
g2
Ntp1857
Rp1858
(dp1859
g6
g0
(g7
g2
Ntp1860
Rp1861
(dp1862
g11
g0
(g12
g13
(lp1863
g329
ag51
ag159
ag130
ag178
ag110
ag197
ag178
atp1864
Rp1865
sbsbatp1866
Rp1867
sbsbag0
(g23
g2
Ntp1868
Rp1869
(dp1870
g6
g0
(g7
g2
Ntp1871
Rp1872
(dp1873
g11
g0
(g12
g13
(lp1874
g0
(g31
g2
Ntp1875
Rp1876
(dp1877
g6
g0
(g7
g2
Ntp1878
Rp1879
(dp1880
g11
g0
(g12
g13
(lp1881
g0
(g39
g2
Ntp1882
Rp1883
(dp1884
g6
g0
(g7
g2
Ntp1885
Rp1886
(dp1887
g11
g0
(g12
g13
(lp1888
S'F'
p1889
atp1890
Rp1891
sbsbag130
ag120
ag216
ag71
atp1892
Rp1893
sbsbag0
(g31
g2
Ntp1894
Rp1895
(dp1896
g6
g0
(g7
g2
Ntp1897
Rp1898
(dp1899
g11
g0
(g12
g13
(lp1900
g110
ag71
ag159
ag159
ag71
ag226
ag178
ag71
ag120
ag614
ag130
ag71
atp1901
Rp1902
sbsbag925
ag1290
ag799
ag862
ag844
ag209
ag0
(g31
g2
Ntp1903
Rp1904
(dp1905
g6
g0
(g7
g2
Ntp1906
Rp1907
(dp1908
g11
g0
(g12
g13
(lp1909
g226
ag100
ag120
ag100
atp1910
Rp1911
sbsbag980
atp1912
Rp1913
sbsbag0
(g23
g2
Ntp1914
Rp1915
(dp1916
g6
g0
(g7
g2
Ntp1917
Rp1918
(dp1919
g11
g0
(g12
g13
(lp1920
g961
ag0
(g31
g2
Ntp1921
Rp1922
(dp1923
g6
g0
(g7
g2
Ntp1924
Rp1925
(dp1926
g11
g0
(g12
g13
(lp1927
g178
ag71
ag81
ag110
ag130
ag120
atp1928
Rp1929
sbsbag0
(g31
g2
Ntp1930
Rp1931
(dp1932
g6
g0
(g7
g2
Ntp1933
Rp1934
(dp1935
g11
g0
(g12
g13
(lp1936
g100
ag226
ag178
ag71
ag61
ag149
ag130
ag81
atp1937
Rp1938
sbsbag925
ag1226
ag853
atp1939
Rp1940
sbsbag0
(g23
g2
Ntp1941
Rp1942
(dp1943
g6
g0
(g7
g2
Ntp1944
Rp1945
(dp1946
g11
g0
(g12
g13
(lp1947
g717
ag1081
ag171
ag396
ag142
ag1380
ag0
(g31
g2
Ntp1948
Rp1949
(dp1950
g6
g0
(g7
g2
Ntp1951
Rp1952
(dp1953
g11
g0
(g12
g13
(lp1954
g216
ag51
ag226
ag149
ag100
ag81
ag71
ag226
ag178
ag130
ag81
atp1955
Rp1956
sbsbatp1957
Rp1958
sbsbag0
(g23
g2
Ntp1959
Rp1960
(dp1961
g6
g0
(g7
g2
Ntp1962
Rp1963
(dp1964
g11
g0
(g12
g13
(lp1965
g1876
ag516
ag1308
ag943
atp1966
Rp1967
sbsbag0
(g23
g2
Ntp1968
Rp1969
(dp1970
g6
g0
(g7
g2
Ntp1971
Rp1972
(dp1973
g11
g0
(g12
g13
(lp1974
g0
(g31
g2
Ntp1975
Rp1976
(dp1977
g6
g0
(g7
g2
Ntp1978
Rp1979
(dp1980
g11
g0
(g12
g13
(lp1981
g282
ag197
ag130
ag61
ag100
ag120
atp1982
Rp1983
sbsbag1434
ag0
(g31
g2
Ntp1984
Rp1985
(dp1986
g6
g0
(g7
g2
Ntp1987
Rp1988
(dp1989
g11
g0
(g12
g13
(lp1990
g100
ag197
ag216
ag130
ag159
ag100
ag120
atp1991
Rp1992
sbsbag0
(g31
g2
Ntp1993
Rp1994
(dp1995
g6
g0
(g7
g2
Ntp1996
Rp1997
(dp1998
g11
g0
(g12
g13
(lp1999
g614
ag130
ag197
ag81
atp2000
Rp2001
sbsbag907
ag1308
atp2002
Rp2003
sbsbag0
(g23
g2
Ntp2004
Rp2005
(dp2006
g6
g0
(g7
g2
Ntp2007
Rp2008
(dp2009
g11
g0
(g12
g13
(lp2010
g1560
ag1452
ag1705
ag0
(g31
g2
Ntp2011
Rp2012
(dp2013
g6
g0
(g7
g2
Ntp2014
Rp2015
(dp2016
g11
g0
(g12
g13
(lp2017
g149
ag130
ag100
atp2018
Rp2019
sbsbag1524
ag0
(g31
g2
Ntp2020
Rp2021
(dp2022
g6
g0
(g7
g2
Ntp2023
Rp2024
(dp2025
g11
g0
(g12
g13
(lp2026
g216
ag51
ag226
ag245
ag130
ag71
atp2027
Rp2028
sbsbag835
ag1895
ag1181
atp2029
Rp2030
sbsbag0
(g23
g2
Ntp2031
Rp2032
(dp2033
g6
g0
(g7
g2
Ntp2034
Rp2035
(dp2036
g11
g0
(g12
g13
(lp2037
g961
ag432
ag0
(g31
g2
Ntp2038
Rp2039
(dp2040
g6
g0
(g7
g2
Ntp2041
Rp2042
(dp2043
g11
g0
(g12
g13
(lp2044
g226
ag130
ag226
ag216
atp2045
Rp2046
sbsbag0
(g31
g2
Ntp2047
Rp2048
(dp2049
g6
g0
(g7
g2
Ntp2050
Rp2051
(dp2052
g11
g0
(g12
g13
(lp2053
g467
ag71
ag130
ag245
ag100
ag197
ag178
atp2054
Rp2055
sbsbag916
ag853
ag0
(g31
g2
Ntp2056
Rp2057
(dp2058
g6
g0
(g7
g2
Ntp2059
Rp2060
(dp2061
g11
g0
(g12
g13
(lp2062
g197
ag178
atp2063
Rp2064
sbsbag1858
ag322
ag871
atp2065
Rp2066
sbsbag0
(g23
g2
Ntp2067
Rp2068
(dp2069
g6
g0
(g7
g2
Ntp2070
Rp2071
(dp2072
g11
g0
(g12
g13
(lp2073
g1876
ag1705
ag1053
ag907
ag1624
ag1624
atp2074
Rp2075
sbsbatp2076
Rp2077
sbsbag0
(g15
g2
Ntp2078
Rp2079
(dp2080
g6
g0
(g7
g2
Ntp2081
Rp2082
(dp2083
g11
g0
(g12
g13
(lp2084
g0
(g23
g2
Ntp2085
Rp2086
(dp2087
g6
g0
(g7
g2
Ntp2088
Rp2089
(dp2090
g11
g0
(g12
g13
(lp2091
g1876
ag1479
ag0
(g31
g2
Ntp2092
Rp2093
(dp2094
g6
g0
(g7
g2
Ntp2095
Rp2096
(dp2097
g11
g0
(g12
g13
(lp2098
g467
ag197
ag216
ag100
ag159
ag100
ag120
ag100
ag120
atp2099
Rp2100
sbsbag142
atp2101
Rp2102
sbsbag0
(g23
g2
Ntp2103
Rp2104
(dp2105
g6
g0
(g7
g2
Ntp2106
Rp2107
(dp2108
g11
g0
(g12
g13
(lp2109
g717
ag0
(g31
g2
Ntp2110
Rp2111
(dp2112
g6
g0
(g7
g2
Ntp2113
Rp2114
(dp2115
g11
g0
(g12
g13
(lp2116
g197
ag216
atp2117
Rp2118
sbsbag257
ag1615
ag1053
ag0
(g31
g2
Ntp2119
Rp2120
(dp2121
g6
g0
(g7
g2
Ntp2122
Rp2123
(dp2124
g11
g0
(g12
g13
(lp2125
g159
ag197
ag216
ag100
ag226
ag100
ag197
atp2126
Rp2127
sbsbag1154
ag934
ag1732
ag1281
atp2128
Rp2129
sbsbag0
(g23
g2
Ntp2130
Rp2131
(dp2132
g6
g0
(g7
g2
Ntp2133
Rp2134
(dp2135
g11
g0
(g12
g13
(lp2136
g0
(g31
g2
Ntp2137
Rp2138
(dp2139
g6
g0
(g7
g2
Ntp2140
Rp2141
(dp2142
g11
g0
(g12
g13
(lp2143
g968
ag71
ag159
ag159
ag71
ag226
ag178
ag71
ag120
ag614
ag130
ag71
atp2144
Rp2145
sbsbag0
(g31
g2
Ntp2146
Rp2147
(dp2148
g6
g0
(g7
g2
Ntp2149
Rp2150
(dp2151
g11
g0
(g12
g13
(lp2152
g329
ag130
ag159
ag110
ag130
ag178
ag197
ag178
ag71
atp2153
Rp2154
sbsbag1281
ag844
ag479
ag1858
ag1895
atp2155
Rp2156
sbsbag0
(g23
g2
Ntp2157
Rp2158
(dp2159
g6
g0
(g7
g2
Ntp2160
Rp2161
(dp2162
g11
g0
(g12
g13
(lp2163
g0
(g31
g2
Ntp2164
Rp2165
(dp2166
g6
g0
(g7
g2
Ntp2167
Rp2168
(dp2169
g11
g0
(g12
g13
(lp2170
g660
ag130
ag61
ag197
ag292
ag100
ag178
ag130
ag61
atp2171
Rp2172
sbsbag790
ag1931
ag0
(g31
g2
Ntp2173
Rp2174
(dp2175
g6
g0
(g7
g2
Ntp2176
Rp2177
(dp2178
g11
g0
(g12
g13
(lp2179
g110
ag61
ag71
ag178
ag100
ag130
ag81
atp2180
Rp2181
sbsbatp2182
Rp2183
sbsbag0
(g23
g2
Ntp2184
Rp2185
(dp2186
g6
g0
(g7
g2
Ntp2187
Rp2188
(dp2189
g11
g0
(g12
g13
(lp2190
g1976
ag1705
ag763
ag0
(g31
g2
Ntp2191
Rp2192
(dp2193
g6
g0
(g7
g2
Ntp2194
Rp2195
(dp2196
g11
g0
(g12
g13
(lp2197
g71
ag61
ag197
ag178
atp2198
Rp2199
sbsbag322
ag0
(g31
g2
Ntp2200
Rp2201
(dp2202
g6
g0
(g7
g2
Ntp2203
Rp2204
(dp2205
g11
g0
(g12
g13
(lp2206
g329
ag197
ag61
ag100
ag130
ag120
atp2207
Rp2208
sbsbag699
ag0
(g31
g2
Ntp2209
Rp2210
(dp2211
g6
g0
(g7
g2
Ntp2212
Rp2213
(dp2214
g11
g0
(g12
g13
(lp2215
g178
ag100
ag226
ag216
ag100
ag149
ag130
ag226
ag178
atp2216
Rp2217
sbsbag907
atp2218
Rp2219
sbsbag0
(g23
g2
Ntp2220
Rp2221
(dp2222
g6
g0
(g7
g2
Ntp2223
Rp2224
(dp2225
g11
g0
(g12
g13
(lp2226
g497
ag0
(g31
g2
Ntp2227
Rp2228
(dp2229
g6
g0
(g7
g2
Ntp2230
Rp2231
(dp2232
g11
g0
(g12
g13
(lp2233
g81
ag197
ag120
ag120
ag197
atp2234
Rp2235
sbsbag0
(g31
g2
Ntp2236
Rp2237
(dp2238
g6
g0
(g7
g2
Ntp2239
Rp2240
(dp2241
g11
g0
(g12
g13
(lp2242
g81
ag197
ag245
ag226
ag197
atp2243
Rp2244
sbsbag1235
ag1452
ag1244
ag2057
ag2147
ag1007
ag1904
atp2245
Rp2246
sbsbag0
(g23
g2
Ntp2247
Rp2248
(dp2249
g6
g0
(g7
g2
Ntp2250
Rp2251
(dp2252
g11
g0
(g12
g13
(lp2253
g0
(g31
g2
Ntp2254
Rp2255
(dp2256
g6
g0
(g7
g2
Ntp2257
Rp2258
(dp2259
g11
g0
(g12
g13
(lp2260
g0
(g39
g2
Ntp2261
Rp2262
(dp2263
g6
g0
(g7
g2
Ntp2264
Rp2265
(dp2266
g11
g0
(g12
g13
(lp2267
S'Q'
p2268
atp2269
Rp2270
sbsbag130
ag100
ag120
ag614
ag130
ag71
atp2271
Rp2272
sbsbag2111
ag1072
ag579
atp2273
Rp2274
sbsbag0
(g23
g2
Ntp2275
Rp2276
(dp2277
g6
g0
(g7
g2
Ntp2278
Rp2279
(dp2280
g11
g0
(g12
g13
(lp2281
g1876
ag0
(g31
g2
Ntp2282
Rp2283
(dp2284
g6
g0
(g7
g2
Ntp2285
Rp2286
(dp2287
g11
g0
(g12
g13
(lp2288
g110
ag51
ag120
ag130
ag71
ag61
ag71
atp2289
Rp2290
sbsbag925
ag516
ag2021
ag1714
ag0
(g31
g2
Ntp2291
Rp2292
(dp2293
g6
g0
(g7
g2
Ntp2294
Rp2295
(dp2296
g11
g0
(g12
g13
(lp2297
g197
ag61
ag216
ag130
atp2298
Rp2299
sbsbag1840
ag1949
ag0
(g31
g2
Ntp2300
Rp2301
(dp2302
g6
g0
(g7
g2
Ntp2303
Rp2304
(dp2305
g11
g0
(g12
g13
(lp2306
g178
ag51
ag61
ag178
ag51
ag61
atp2307
Rp2308
sbsbag934
ag460
ag0
(g31
g2
Ntp2309
Rp2310
(dp2311
g6
g0
(g7
g2
Ntp2312
Rp2313
(dp2314
g11
g0
(g12
g13
(lp2315
g226
ag130
ag159
ag159
ag197
atp2316
Rp2317
sbsbag2310
ag1290
ag579
atp2318
Rp2319
sbsbag0
(g23
g2
Ntp2320
Rp2321
(dp2322
g6
g0
(g7
g2
Ntp2323
Rp2324
(dp2325
g11
g0
(g12
g13
(lp2326
g1034
ag570
ag2021
ag835
ag1931
ag0
(g31
g2
Ntp2327
Rp2328
(dp2329
g6
g0
(g7
g2
Ntp2330
Rp2331
(dp2332
g11
g0
(g12
g13
(lp2333
g292
ag100
ag292
ag71
ag226
ag149
ag130
ag81
atp2334
Rp2335
sbsbatp2336
Rp2337
sbsbag0
(g23
g2
Ntp2338
Rp2339
(dp2340
g6
g0
(g7
g2
Ntp2341
Rp2342
(dp2343
g11
g0
(g12
g13
(lp2344
g717
ag1072
ag1127
ag0
(g31
g2
Ntp2345
Rp2346
(dp2347
g6
g0
(g7
g2
Ntp2348
Rp2349
(dp2350
g11
g0
(g12
g13
(lp2351
g130
ag61
ag226
ag197
atp2352
Rp2353
sbsbag322
ag626
ag835
ag1072
ag690
atp2354
Rp2355
sbsbag0
(g23
g2
Ntp2356
Rp2357
(dp2358
g6
g0
(g7
g2
Ntp2359
Rp2360
(dp2361
g11
g0
(g12
g13
(lp2362
g717
ag2210
ag93
ag844
ag672
ag0
(g31
g2
Ntp2363
Rp2364
(dp2365
g6
g0
(g7
g2
Ntp2366
Rp2367
(dp2368
g11
g0
(g12
g13
(lp2369
g467
ag71
ag130
ag245
ag100
ag197
ag178
atp2370
Rp2371
sbsbag1615
ag1452
ag2310
ag2093
atp2372
Rp2373
sbsbatp2374
Rp2375
sbsbag0
(g15
g2
Ntp2376
Rp2377
(dp2378
g6
g0
(g7
g2
Ntp2379
Rp2380
(dp2381
g11
g0
(g12
g13
(lp2382
g0
(g23
g2
Ntp2383
Rp2384
(dp2385
g6
g0
(g7
g2
Ntp2386
Rp2387
(dp2388
g11
g0
(g12
g13
(lp2389
g717
ag1181
ag799
ag1127
atp2390
Rp2391
sbsbag0
(g23
g2
Ntp2392
Rp2393
(dp2394
g6
g0
(g7
g2
Ntp2395
Rp2396
(dp2397
g11
g0
(g12
g13
(lp2398
g1099
ag1290
ag1007
ag635
atp2399
Rp2400
sbsbag0
(g23
g2
Ntp2401
Rp2402
(dp2403
g6
g0
(g7
g2
Ntp2404
Rp2405
(dp2406
g11
g0
(g12
g13
(lp2407
g1560
ag2111
ag1642
ag1281
atp2408
Rp2409
sbsbag0
(g23
g2
Ntp2410
Rp2411
(dp2412
g6
g0
(g7
g2
Ntp2413
Rp2414
(dp2415
g11
g0
(g12
g13
(lp2416
g817
ag1172
ag871
ag0
(g31
g2
Ntp2417
Rp2418
(dp2419
g6
g0
(g7
g2
Ntp2420
Rp2421
(dp2422
g11
g0
(g12
g13
(lp2423
g71
ag226
ag100
ag81
atp2424
Rp2425
sbsbag1660
ag853
ag1651
ag209
ag1226
atp2426
Rp2427
sbsbag0
(g23
g2
Ntp2428
Rp2429
(dp2430
g6
g0
(g7
g2
Ntp2431
Rp2432
(dp2433
g11
g0
(g12
g13
(lp2434
g1560
ag1181
ag790
ag1127
atp2435
Rp2436
sbsbag0
(g23
g2
Ntp2437
Rp2438
(dp2439
g6
g0
(g7
g2
Ntp2440
Rp2441
(dp2442
g11
g0
(g12
g13
(lp2443
g0
(g31
g2
Ntp2444
Rp2445
(dp2446
g6
g0
(g7
g2
Ntp2447
Rp2448
(dp2449
g11
g0
(g12
g13
(lp2450
g968
ag61
ag197
ag71
ag120
ag71
ag226
ag178
atp2451
Rp2452
sbsbag1172
ag1127
ag171
ag396
ag1922
ag2174
atp2453
Rp2454
sbsbag0
(g23
g2
Ntp2455
Rp2456
(dp2457
g6
g0
(g7
g2
Ntp2458
Rp2459
(dp2460
g11
g0
(g12
g13
(lp2461
g1560
ag1380
ag2292
ag690
ag0
(g31
g2
Ntp2462
Rp2463
(dp2464
g6
g0
(g7
g2
Ntp2465
Rp2466
(dp2467
g11
g0
(g12
g13
(lp2468
g292
ag159
ag197
ag226
ag149
ag100
ag178
atp2469
Rp2470
sbsbag1506
atp2471
Rp2472
sbsbag0
(g23
g2
Ntp2473
Rp2474
(dp2475
g6
g0
(g7
g2
Ntp2476
Rp2477
(dp2478
g11
g0
(g12
g13
(lp2479
g0
(g31
g2
Ntp2480
Rp2481
(dp2482
g6
g0
(g7
g2
Ntp2483
Rp2484
(dp2485
g11
g0
(g12
g13
(lp2486
g384
ag130
ag159
ag159
ag197
ag81
atp2487
Rp2488
sbsbag907
ag1822
ag2111
ag1696
ag0
(g31
g2
Ntp2489
Rp2490
(dp2491
g6
g0
(g7
g2
Ntp2492
Rp2493
(dp2494
g11
g0
(g12
g13
(lp2495
g110
ag159
ag197
ag216
ag71
ag61
ag197
ag178
atp2496
Rp2497
sbsbag552
atp2498
Rp2499
sbsbag0
(g23
g2
Ntp2500
Rp2501
(dp2502
g6
g0
(g7
g2
Ntp2503
Rp2504
(dp2505
g11
g0
(g12
g13
(lp2506
g597
ag998
ag916
ag1669
ag998
ag2210
ag579
atp2507
Rp2508
sbsbatp2509
Rp2510
sbsbatp2511
Rp2512
sbsb.