ccopy_reg
_reconstructor
p0
(cmodel.content
Document
p1
c__builtin__
object
p2
Ntp3
Rp4
(dp5
S'elements'
p6
g0
(cmodel.content
Content_part
p7
g2
Ntp8
Rp9
(dp10
S'list'
p11
g0
(cmodel.container
List
p12
c__builtin__
list
p13
(lp14
g0
(cmodel.content
Paragraph
p15
g2
Ntp16
Rp17
(dp18
g6
g0
(g7
g2
Ntp19
Rp20
(dp21
g11
g0
(g12
g13
(lp22
g0
(cmodel.content
Sentence
p23
g2
Ntp24
Rp25
(dp26
g6
g0
(g7
g2
Ntp27
Rp28
(dp29
g11
g0
(g12
g13
(lp30
g0
(cmodel.content
Word
p31
g2
Ntp32
Rp33
(dp34
g6
g0
(g7
g2
Ntp35
Rp36
(dp37
g11
g0
(g12
g13
(lp38
g0
(cmodel.content
Char
p39
g2
Ntp40
Rp41
(dp42
g6
g0
(g7
g2
Ntp43
Rp44
(dp45
g11
g0
(g12
g13
(lp46
S'F'
p47
atp48
Rp49
sbsbag0
(g39
g2
Ntp50
Rp51
(dp52
g6
g0
(g7
g2
Ntp53
Rp54
(dp55
g11
g0
(g12
g13
(lp56
S'u'
p57
atp58
Rp59
sbsbag0
(g39
g2
Ntp60
Rp61
(dp62
g6
g0
(g7
g2
Ntp63
Rp64
(dp65
g11
g0
(g12
g13
(lp66
S's'
p67
atp68
Rp69
sbsbag0
(g39
g2
Ntp70
Rp71
(dp72
g6
g0
(g7
g2
Ntp73
Rp74
(dp75
g11
g0
(g12
g13
(lp76
S'c'
p77
atp78
Rp79
sbsbag0
(g39
g2
Ntp80
Rp81
(dp82
g6
g0
(g7
g2
Ntp83
Rp84
(dp85
g11
g0
(g12
g13
(lp86
S'e'
p87
atp88
Rp89
sbsbatp90
Rp91
sbsbag0
(g31
g2
Ntp92
Rp93
(dp94
g6
g0
(g7
g2
Ntp95
Rp96
(dp97
g11
g0
(g12
g13
(lp98
g0
(g39
g2
Ntp99
Rp100
(dp101
g6
g0
(g7
g2
Ntp102
Rp103
(dp104
g11
g0
(g12
g13
(lp105
S't'
p106
atp107
Rp108
sbsbag0
(g39
g2
Ntp109
Rp110
(dp111
g6
g0
(g7
g2
Ntp112
Rp113
(dp114
g11
g0
(g12
g13
(lp115
S'r'
p116
atp117
Rp118
sbsbag0
(g39
g2
Ntp119
Rp120
(dp121
g6
g0
(g7
g2
Ntp122
Rp123
(dp124
g11
g0
(g12
g13
(lp125
S'i'
p126
atp127
Rp128
sbsbag61
ag100
ag120
ag0
(g39
g2
Ntp129
Rp130
(dp131
g6
g0
(g7
g2
Ntp132
Rp133
(dp134
g11
g0
(g12
g13
(lp135
S'q'
p136
atp137
Rp138
sbsbag51
ag81
atp139
Rp140
sbsbag0
(g31
g2
Ntp141
Rp142
(dp143
g6
g0
(g7
g2
Ntp144
Rp145
(dp146
g11
g0
(g12
g13
(lp147
g100
ag0
(g39
g2
Ntp148
Rp149
(dp150
g6
g0
(g7
g2
Ntp151
Rp152
(dp153
g11
g0
(g12
g13
(lp154
S'o'
p155
atp156
Rp157
sbsbag110
ag100
ag149
ag110
atp158
Rp159
sbsbag0
(g31
g2
Ntp160
Rp161
(dp162
g6
g0
(g7
g2
Ntp163
Rp164
(dp165
g11
g0
(g12
g13
(lp166
g81
ag51
atp167
Rp168
sbsbag0
(g31
g2
Ntp169
Rp170
(dp171
g6
g0
(g7
g2
Ntp172
Rp173
(dp174
g11
g0
(g12
g13
(lp175
g0
(g39
g2
Ntp176
Rp177
(dp178
g6
g0
(g7
g2
Ntp179
Rp180
(dp181
g11
g0
(g12
g13
(lp182
S'p'
p183
atp184
Rp185
sbsbag149
ag110
ag100
ag0
(g39
g2
Ntp186
Rp187
(dp188
g6
g0
(g7
g2
Ntp189
Rp190
(dp191
g11
g0
(g12
g13
(lp192
S'a'
p193
atp194
Rp195
sbsbatp196
Rp197
sbsbag0
(g31
g2
Ntp198
Rp199
(dp200
g6
g0
(g7
g2
Ntp201
Rp202
(dp203
g11
g0
(g12
g13
(lp204
g100
ag120
ag0
(g39
g2
Ntp205
Rp206
(dp207
g6
g0
(g7
g2
Ntp208
Rp209
(dp210
g11
g0
(g12
g13
(lp211
S'n'
p212
atp213
Rp214
sbsbag71
ag120
ag0
(g39
g2
Ntp215
Rp216
(dp217
g6
g0
(g7
g2
Ntp218
Rp219
(dp220
g11
g0
(g12
g13
(lp221
S'd'
p222
atp223
Rp224
sbsbag51
ag206
ag100
atp225
Rp226
sbsbatp227
Rp228
sbsbag0
(g23
g2
Ntp229
Rp230
(dp231
g6
g0
(g7
g2
Ntp232
Rp233
(dp234
g11
g0
(g12
g13
(lp235
g0
(g31
g2
Ntp236
Rp237
(dp238
g6
g0
(g7
g2
Ntp239
Rp240
(dp241
g11
g0
(g12
g13
(lp242
g0
(g39
g2
Ntp243
Rp244
(dp245
g6
g0
(g7
g2
Ntp246
Rp247
(dp248
g11
g0
(g12
g13
(lp249
S'P'
p250
atp251
Rp252
sbsbag110
ag149
ag120
ag206
atp253
Rp254
sbsbag170
ag0
(g31
g2
Ntp255
Rp256
(dp257
g6
g0
(g7
g2
Ntp258
Rp259
(dp260
g11
g0
(g12
g13
(lp261
g0
(g39
g2
Ntp262
Rp263
(dp264
g6
g0
(g7
g2
Ntp265
Rp266
(dp267
g11
g0
(g12
g13
(lp268
S'g'
p269
atp270
Rp271
sbsbag110
ag187
ag0
(g39
g2
Ntp272
Rp273
(dp274
g6
g0
(g7
g2
Ntp275
Rp276
(dp277
g11
g0
(g12
g13
(lp278
S'v'
p279
atp280
Rp281
sbsbag120
ag216
ag187
atp282
Rp283
sbsbag0
(g31
g2
Ntp284
Rp285
(dp286
g6
g0
(g7
g2
Ntp287
Rp288
(dp289
g11
g0
(g12
g13
(lp290
g0
(g39
g2
Ntp291
Rp292
(dp293
g6
g0
(g7
g2
Ntp294
Rp295
(dp296
g11
g0
(g12
g13
(lp297
S'l'
p298
atp299
Rp300
sbsbag81
ag71
ag100
ag51
ag61
atp301
Rp302
sbsbag0
(g31
g2
Ntp303
Rp304
(dp305
g6
g0
(g7
g2
Ntp306
Rp307
(dp308
g11
g0
(g12
g13
(lp309
g120
ag216
atp310
Rp311
sbsbag0
(g31
g2
Ntp312
Rp313
(dp314
g6
g0
(g7
g2
Ntp315
Rp316
(dp317
g11
g0
(g12
g13
(lp318
g120
ag187
ag71
ag51
ag292
ag120
ag61
atp319
Rp320
sbsbag0
(g31
g2
Ntp321
Rp322
(dp323
g6
g0
(g7
g2
Ntp324
Rp325
(dp326
g11
g0
(g12
g13
(lp327
g149
ag110
ag71
ag120
atp328
Rp329
sbsbag199
ag0
(g31
g2
Ntp330
Rp331
(dp332
g6
g0
(g7
g2
Ntp333
Rp334
(dp335
g11
g0
(g12
g13
(lp336
g51
ag100
atp337
Rp338
sbsbatp339
Rp340
sbsbag0
(g23
g2
Ntp341
Rp342
(dp343
g6
g0
(g7
g2
Ntp344
Rp345
(dp346
g11
g0
(g12
g13
(lp347
g0
(g31
g2
Ntp348
Rp349
(dp350
g6
g0
(g7
g2
Ntp351
Rp352
(dp353
g11
g0
(g12
g13
(lp354
g0
(g39
g2
Ntp355
Rp356
(dp357
g6
g0
(g7
g2
Ntp358
Rp359
(dp360
g11
g0
(g12
g13
(lp361
S'D'
p362
atp363
Rp364
sbsbag149
ag206
ag81
ag71
atp365
Rp366
sbsbag0
(g31
g2
Ntp367
Rp368
(dp369
g6
g0
(g7
g2
Ntp370
Rp371
(dp372
g11
g0
(g12
g13
(lp373
g149
ag110
ag206
ag187
ag110
ag81
atp374
Rp375
sbsbag0
(g31
g2
Ntp376
Rp377
(dp378
g6
g0
(g7
g2
Ntp379
Rp380
(dp381
g11
g0
(g12
g13
(lp382
g120
ag177
ag61
ag51
ag0
(g39
g2
Ntp383
Rp384
(dp385
g6
g0
(g7
g2
Ntp386
Rp387
(dp388
g11
g0
(g12
g13
(lp389
S'm'
p390
atp391
Rp392
sbsbatp393
Rp394
sbsbag0
(g31
g2
Ntp395
Rp396
(dp397
g6
g0
(g7
g2
Ntp398
Rp399
(dp400
g11
g0
(g12
g13
(lp401
g100
ag51
ag110
ag177
ag120
ag61
atp402
Rp403
sbsbag0
(g31
g2
Ntp404
Rp405
(dp406
g6
g0
(g7
g2
Ntp407
Rp408
(dp409
g11
g0
(g12
g13
(lp410
g71
ag149
ag206
ag61
ag81
ag71
ag100
ag81
ag100
ag51
ag110
atp411
Rp412
sbsbag0
(g31
g2
Ntp413
Rp414
(dp415
g6
g0
(g7
g2
Ntp416
Rp417
(dp418
g11
g0
(g12
g13
(lp419
g384
ag149
ag292
ag81
ag61
ag100
ag120
ag81
atp420
Rp421
sbsbag0
(g31
g2
Ntp422
Rp423
(dp424
g6
g0
(g7
g2
Ntp425
Rp426
(dp427
g11
g0
(g12
g13
(lp428
g216
ag51
ag120
atp429
Rp430
sbsbag0
(g31
g2
Ntp431
Rp432
(dp433
g6
g0
(g7
g2
Ntp434
Rp435
(dp436
g11
g0
(g12
g13
(lp437
g292
ag187
ag149
ag110
ag81
ag81
ag100
atp438
Rp439
sbsbag304
atp440
Rp441
sbsbag0
(g23
g2
Ntp442
Rp443
(dp444
g6
g0
(g7
g2
Ntp445
Rp446
(dp447
g11
g0
(g12
g13
(lp448
g0
(g31
g2
Ntp449
Rp450
(dp451
g6
g0
(g7
g2
Ntp452
Rp453
(dp454
g11
g0
(g12
g13
(lp455
g0
(g39
g2
Ntp456
Rp457
(dp458
g6
g0
(g7
g2
Ntp459
Rp460
(dp461
g11
g0
(g12
g13
(lp462
S'V'
p463
atp464
Rp465
sbsbag120
ag273
ag187
ag384
ag51
ag61
atp466
Rp467
sbsbag0
(g31
g2
Ntp468
Rp469
(dp470
g6
g0
(g7
g2
Ntp471
Rp472
(dp473
g11
g0
(g12
g13
(lp474
g71
ag149
ag206
ag273
ag187
ag292
ag292
ag120
ag61
atp475
Rp476
sbsbag0
(g31
g2
Ntp477
Rp478
(dp479
g6
g0
(g7
g2
Ntp480
Rp481
(dp482
g11
g0
(g12
g13
(lp483
g216
ag120
ag187
ag384
atp484
Rp485
sbsbag0
(g31
g2
Ntp486
Rp487
(dp488
g6
g0
(g7
g2
Ntp489
Rp490
(dp491
g11
g0
(g12
g13
(lp492
g61
ag120
ag100
atp493
Rp494
sbsbag0
(g31
g2
Ntp495
Rp496
(dp497
g6
g0
(g7
g2
Ntp498
Rp499
(dp500
g11
g0
(g12
g13
(lp501
g187
ag384
ag81
ag100
atp502
Rp503
sbsbag0
(g31
g2
Ntp504
Rp505
(dp506
g6
g0
(g7
g2
Ntp507
Rp508
(dp509
g11
g0
(g12
g13
(lp510
g61
ag51
ag61
ag71
ag120
ag177
ag120
ag100
atp511
Rp512
sbsbag0
(g31
g2
Ntp513
Rp514
(dp515
g6
g0
(g7
g2
Ntp516
Rp517
(dp518
g11
g0
(g12
g13
(lp519
g216
ag187
ag177
ag120
ag0
(g39
g2
Ntp520
Rp521
(dp522
g6
g0
(g7
g2
Ntp523
Rp524
(dp525
g11
g0
(g12
g13
(lp526
S'b'
p527
atp528
Rp529
sbsbag51
ag61
atp530
Rp531
sbsbag377
ag0
(g31
g2
Ntp532
Rp533
(dp534
g6
g0
(g7
g2
Ntp535
Rp536
(dp537
g11
g0
(g12
g13
(lp538
g149
ag216
ag120
ag149
atp539
Rp540
sbsbag0
(g31
g2
Ntp541
Rp542
(dp543
g6
g0
(g7
g2
Ntp544
Rp545
(dp546
g11
g0
(g12
g13
(lp547
g187
ag292
ag120
ag130
ag51
ag81
ag100
atp548
Rp549
sbsbag0
(g31
g2
Ntp550
Rp551
(dp552
g6
g0
(g7
g2
Ntp553
Rp554
(dp555
g11
g0
(g12
g13
(lp556
g81
ag110
ag187
ag100
atp557
Rp558
sbsbag0
(g31
g2
Ntp559
Rp560
(dp561
g6
g0
(g7
g2
Ntp562
Rp563
(dp564
g11
g0
(g12
g13
(lp565
g81
ag263
ag81
ag100
atp566
Rp567
sbsbag199
ag0
(g31
g2
Ntp568
Rp569
(dp570
g6
g0
(g7
g2
Ntp571
Rp572
(dp573
g11
g0
(g12
g13
(lp574
g51
ag110
ag206
ag187
atp575
Rp576
sbsbag0
(g31
g2
Ntp577
Rp578
(dp579
g6
g0
(g7
g2
Ntp580
Rp581
(dp582
g11
g0
(g12
g13
(lp583
g216
ag149
ag292
ag149
ag110
atp584
Rp585
sbsbag0
(g31
g2
Ntp586
Rp587
(dp588
g6
g0
(g7
g2
Ntp589
Rp590
(dp591
g11
g0
(g12
g13
(lp592
g273
ag120
ag100
ag187
ag81
atp593
Rp594
sbsbag0
(g31
g2
Ntp595
Rp596
(dp597
g6
g0
(g7
g2
Ntp598
Rp599
(dp600
g11
g0
(g12
g13
(lp601
g0
(g39
g2
Ntp602
Rp603
(dp604
g6
g0
(g7
g2
Ntp605
Rp606
(dp607
g11
g0
(g12
g13
(lp608
S'j'
p609
atp610
Rp611
sbsbag51
ag61
ag100
ag149
atp612
Rp613
sbsbatp614
Rp615
sbsbag0
(g23
g2
Ntp616
Rp617
(dp618
g6
g0
(g7
g2
Ntp619
Rp620
(dp621
g11
g0
(g12
g13
(lp622
g0
(g31
g2
Ntp623
Rp624
(dp625
g6
g0
(g7
g2
Ntp626
Rp627
(dp628
g11
g0
(g12
g13
(lp629
g0
(g39
g2
Ntp630
Rp631
(dp632
g6
g0
(g7
g2
Ntp633
Rp634
(dp635
g11
g0
(g12
g13
(lp636
S'U'
p637
atp638
Rp639
sbsbag100
atp640
Rp641
sbsbag587
ag0
(g31
g2
Ntp642
Rp643
(dp644
g6
g0
(g7
g2
Ntp645
Rp646
(dp647
g11
g0
(g12
g13
(lp648
g0
(g39
g2
Ntp649
Rp650
(dp651
g6
g0
(g7
g2
Ntp652
Rp653
(dp654
g11
g0
(g12
g13
(lp655
S'f'
p656
atp657
Rp658
sbsbag187
ag51
ag71
ag120
ag521
ag51
ag61
atp659
Rp660
sbsbag0
(g31
g2
Ntp661
Rp662
(dp663
g6
g0
(g7
g2
Ntp664
Rp665
(dp666
g11
g0
(g12
g13
(lp667
g292
ag81
ag149
atp668
Rp669
sbsbatp670
Rp671
sbsbag0
(g23
g2
Ntp672
Rp673
(dp674
g6
g0
(g7
g2
Ntp675
Rp676
(dp677
g11
g0
(g12
g13
(lp678
g0
(g31
g2
Ntp679
Rp680
(dp681
g6
g0
(g7
g2
Ntp682
Rp683
(dp684
g11
g0
(g12
g13
(lp685
g0
(g39
g2
Ntp686
Rp687
(dp688
g6
g0
(g7
g2
Ntp689
Rp690
(dp691
g11
g0
(g12
g13
(lp692
S'E'
p693
atp694
Rp695
sbsbag100
ag120
ag187
ag384
atp696
Rp697
sbsbag0
(g31
g2
Ntp698
Rp699
(dp700
g6
g0
(g7
g2
Ntp701
Rp702
(dp703
g11
g0
(g12
g13
(lp704
g384
ag187
ag100
ag100
ag120
ag61
atp705
Rp706
sbsbag0
(g31
g2
Ntp707
Rp708
(dp709
g6
g0
(g7
g2
Ntp710
Rp711
(dp712
g11
g0
(g12
g13
(lp713
g81
ag292
ag81
ag384
ag81
ag206
ag100
ag51
ag384
atp714
Rp715
sbsbag0
(g31
g2
Ntp716
Rp717
(dp718
g6
g0
(g7
g2
Ntp719
Rp720
(dp721
g11
g0
(g12
g13
(lp722
g187
ag110
ag71
ag51
atp723
Rp724
sbsbatp725
Rp726
sbsbag0
(g23
g2
Ntp727
Rp728
(dp729
g6
g0
(g7
g2
Ntp730
Rp731
(dp732
g11
g0
(g12
g13
(lp733
g0
(g31
g2
Ntp734
Rp735
(dp736
g6
g0
(g7
g2
Ntp737
Rp738
(dp739
g11
g0
(g12
g13
(lp740
g0
(g39
g2
Ntp741
Rp742
(dp743
g6
g0
(g7
g2
Ntp744
Rp745
(dp746
g11
g0
(g12
g13
(lp747
S'C'
p748
atp749
Rp750
sbsbag110
ag187
ag61
atp751
Rp752
sbsbag0
(g31
g2
Ntp753
Rp754
(dp755
g6
g0
(g7
g2
Ntp756
Rp757
(dp758
g11
g0
(g12
g13
(lp759
g61
ag81
ag384
ag177
ag81
ag110
atp760
Rp761
sbsbag0
(g31
g2
Ntp762
Rp763
(dp764
g6
g0
(g7
g2
Ntp765
Rp766
(dp767
g11
g0
(g12
g13
(lp768
g292
ag187
ag71
ag51
ag61
atp769
Rp770
sbsbag0
(g31
g2
Ntp771
Rp772
(dp773
g6
g0
(g7
g2
Ntp774
Rp775
(dp776
g11
g0
(g12
g13
(lp777
g206
ag81
ag71
atp778
Rp779
sbsbag0
(g31
g2
Ntp780
Rp781
(dp782
g6
g0
(g7
g2
Ntp783
Rp784
(dp785
g11
g0
(g12
g13
(lp786
g177
ag81
ag292
ag292
ag81
ag206
ag100
ag81
ag61
ag130
ag51
ag81
atp787
Rp788
sbsbag199
atp789
Rp790
sbsbag0
(g23
g2
Ntp791
Rp792
(dp793
g6
g0
(g7
g2
Ntp794
Rp795
(dp796
g11
g0
(g12
g13
(lp797
g0
(g31
g2
Ntp798
Rp799
(dp800
g6
g0
(g7
g2
Ntp801
Rp802
(dp803
g11
g0
(g12
g13
(lp804
g0
(g39
g2
Ntp805
Rp806
(dp807
g6
g0
(g7
g2
Ntp808
Rp809
(dp810
g11
g0
(g12
g13
(lp811
S'M'
p812
atp813
Rp814
sbsbag149
ag110
ag521
ag120
atp815
Rp816
sbsbag161
ag0
(g31
g2
Ntp817
Rp818
(dp819
g6
g0
(g7
g2
Ntp820
Rp821
(dp822
g11
g0
(g12
g13
(lp823
g81
ag110
ag149
ag61
atp824
Rp825
sbsbag0
(g31
g2
Ntp826
Rp827
(dp828
g6
g0
(g7
g2
Ntp829
Rp830
(dp831
g11
g0
(g12
g13
(lp832
g120
ag206
atp833
Rp834
sbsbag0
(g31
g2
Ntp835
Rp836
(dp837
g6
g0
(g7
g2
Ntp838
Rp839
(dp840
g11
g0
(g12
g13
(lp841
g650
ag81
ag292
ag120
ag61
atp842
Rp843
sbsbag0
(g31
g2
Ntp844
Rp845
(dp846
g6
g0
(g7
g2
Ntp847
Rp848
(dp849
g11
g0
(g12
g13
(lp850
g273
ag120
ag273
ag81
ag110
ag110
ag187
atp851
Rp852
sbsbag0
(g31
g2
Ntp853
Rp854
(dp855
g6
g0
(g7
g2
Ntp856
Rp857
(dp858
g11
g0
(g12
g13
(lp859
g177
ag0
(g39
g2
Ntp860
Rp861
(dp862
g6
g0
(g7
g2
Ntp863
Rp864
(dp865
g11
g0
(g12
g13
(lp866
S'h'
p867
atp868
Rp869
sbsbag187
ag110
ag81
ag100
ag110
ag187
atp870
Rp871
sbsbatp872
Rp873
sbsbag0
(g23
g2
Ntp874
Rp875
(dp876
g6
g0
(g7
g2
Ntp877
Rp878
(dp879
g11
g0
(g12
g13
(lp880
g0
(g31
g2
Ntp881
Rp882
(dp883
g6
g0
(g7
g2
Ntp884
Rp885
(dp886
g11
g0
(g12
g13
(lp887
g0
(g39
g2
Ntp888
Rp889
(dp890
g6
g0
(g7
g2
Ntp891
Rp892
(dp893
g11
g0
(g12
g13
(lp894
S'I'
p895
atp896
Rp897
sbsbag206
ag100
ag81
ag263
ag81
ag110
atp898
Rp899
sbsbag0
(g31
g2
Ntp900
Rp901
(dp902
g6
g0
(g7
g2
Ntp903
Rp904
(dp905
g11
g0
(g12
g13
(lp906
g187
atp907
Rp908
sbsbag0
(g31
g2
Ntp909
Rp910
(dp911
g6
g0
(g7
g2
Ntp912
Rp913
(dp914
g11
g0
(g12
g13
(lp915
g81
ag292
ag120
ag100
atp916
Rp917
sbsbag0
(g31
g2
Ntp918
Rp919
(dp920
g6
g0
(g7
g2
Ntp921
Rp922
(dp923
g11
g0
(g12
g13
(lp924
g187
ag216
ag120
ag177
ag120
ag61
ag71
ag120
ag206
ag263
atp925
Rp926
sbsbag0
(g31
g2
Ntp927
Rp928
(dp929
g6
g0
(g7
g2
Ntp930
Rp931
(dp932
g11
g0
(g12
g13
(lp933
g216
ag120
ag71
ag100
ag51
ag384
atp934
Rp935
sbsbag0
(g31
g2
Ntp936
Rp937
(dp938
g6
g0
(g7
g2
Ntp939
Rp940
(dp941
g11
g0
(g12
g13
(lp942
g187
ag206
ag100
ag81
atp943
Rp944
sbsbag0
(g31
g2
Ntp945
Rp946
(dp947
g6
g0
(g7
g2
Ntp948
Rp949
(dp950
g11
g0
(g12
g13
(lp951
g187
ag71
atp952
Rp953
sbsbag781
ag0
(g31
g2
Ntp954
Rp955
(dp956
g6
g0
(g7
g2
Ntp957
Rp958
(dp959
g11
g0
(g12
g13
(lp960
g292
ag120
ag263
ag51
ag292
ag187
atp961
Rp962
sbsbatp963
Rp964
sbsbag0
(g23
g2
Ntp965
Rp966
(dp967
g6
g0
(g7
g2
Ntp968
Rp969
(dp970
g11
g0
(g12
g13
(lp971
g0
(g31
g2
Ntp972
Rp973
(dp974
g6
g0
(g7
g2
Ntp975
Rp976
(dp977
g11
g0
(g12
g13
(lp978
g244
ag110
ag187
ag81
ag61
ag81
ag206
ag100
atp979
Rp980
sbsbag0
(g31
g2
Ntp981
Rp982
(dp983
g6
g0
(g7
g2
Ntp984
Rp985
(dp986
g11
g0
(g12
g13
(lp987
g384
ag120
atp988
Rp989
sbsbag0
(g31
g2
Ntp990
Rp991
(dp992
g6
g0
(g7
g2
Ntp993
Rp994
(dp995
g11
g0
(g12
g13
(lp996
g187
ag51
ag263
ag51
ag81
atp997
Rp998
sbsbag0
(g31
g2
Ntp999
Rp1000
(dp1001
g6
g0
(g7
g2
Ntp1002
Rp1003
(dp1004
g11
g0
(g12
g13
(lp1005
g216
ag187
ag177
ag120
ag521
ag51
ag61
atp1006
Rp1007
sbsbag0
(g31
g2
Ntp1008
Rp1009
(dp1010
g6
g0
(g7
g2
Ntp1011
Rp1012
(dp1013
g11
g0
(g12
g13
(lp1014
g130
ag51
ag120
ag61
atp1015
Rp1016
sbsbag596
ag0
(g31
g2
Ntp1017
Rp1018
(dp1019
g6
g0
(g7
g2
Ntp1020
Rp1021
(dp1022
g11
g0
(g12
g13
(lp1023
g273
ag120
ag100
ag187
ag81
atp1024
Rp1025
sbsbag0
(g31
g2
Ntp1026
Rp1027
(dp1028
g6
g0
(g7
g2
Ntp1029
Rp1030
(dp1031
g11
g0
(g12
g13
(lp1032
g177
ag110
ag81
ag100
ag120
ag51
ag384
atp1033
Rp1034
sbsbag256
ag0
(g31
g2
Ntp1035
Rp1036
(dp1037
g6
g0
(g7
g2
Ntp1038
Rp1039
(dp1040
g11
g0
(g12
g13
(lp1041
g187
ag51
ag263
ag51
ag81
atp1042
Rp1043
sbsbatp1044
Rp1045
sbsbag0
(g23
g2
Ntp1046
Rp1047
(dp1048
g6
g0
(g7
g2
Ntp1049
Rp1050
(dp1051
g11
g0
(g12
g13
(lp1052
g0
(g31
g2
Ntp1053
Rp1054
(dp1055
g6
g0
(g7
g2
Ntp1056
Rp1057
(dp1058
g11
g0
(g12
g13
(lp1059
g0
(g39
g2
Ntp1060
Rp1061
(dp1062
g6
g0
(g7
g2
Ntp1063
Rp1064
(dp1065
g11
g0
(g12
g13
(lp1066
S'S'
p1067
atp1068
Rp1069
sbsbag51
ag61
ag177
ag81
ag206
ag216
ag120
ag61
ag61
ag81
atp1070
Rp1071
sbsbag0
(g31
g2
Ntp1072
Rp1073
(dp1074
g6
g0
(g7
g2
Ntp1075
Rp1076
(dp1077
g11
g0
(g12
g13
(lp1078
g292
ag187
ag71
ag120
ag206
ag120
ag187
atp1079
Rp1080
sbsbag818
ag331
ag910
ag0
(g31
g2
Ntp1081
Rp1082
(dp1083
g6
g0
(g7
g2
Ntp1084
Rp1085
(dp1086
g11
g0
(g12
g13
(lp1087
g100
ag81
ag384
ag177
ag149
ag110
atp1088
Rp1089
sbsbag0
(g31
g2
Ntp1090
Rp1091
(dp1092
g6
g0
(g7
g2
Ntp1093
Rp1094
(dp1095
g11
g0
(g12
g13
(lp1096
g292
ag149
ag521
ag149
ag110
ag100
ag120
ag61
atp1097
Rp1098
sbsbatp1099
Rp1100
sbsbag0
(g23
g2
Ntp1101
Rp1102
(dp1103
g6
g0
(g7
g2
Ntp1104
Rp1105
(dp1106
g11
g0
(g12
g13
(lp1107
g0
(g31
g2
Ntp1108
Rp1109
(dp1110
g6
g0
(g7
g2
Ntp1111
Rp1112
(dp1113
g11
g0
(g12
g13
(lp1114
g0
(g39
g2
Ntp1115
Rp1116
(dp1117
g6
g0
(g7
g2
Ntp1118
Rp1119
(dp1120
g11
g0
(g12
g13
(lp1121
S'N'
p1122
atp1123
Rp1124
sbsbag51
ag206
ag71
atp1125
Rp1126
sbsbag0
(g31
g2
Ntp1127
Rp1128
(dp1129
g6
g0
(g7
g2
Ntp1130
Rp1131
(dp1132
g11
g0
(g12
g13
(lp1133
g81
ag292
ag81
ag384
ag81
ag206
ag100
ag51
ag384
atp1134
Rp1135
sbsbag0
(g31
g2
Ntp1136
Rp1137
(dp1138
g6
g0
(g7
g2
Ntp1139
Rp1140
(dp1141
g11
g0
(g12
g13
(lp1142
g206
ag120
ag521
ag861
atp1143
Rp1144
sbsbag772
ag0
(g31
g2
Ntp1145
Rp1146
(dp1147
g6
g0
(g7
g2
Ntp1148
Rp1149
(dp1150
g11
g0
(g12
g13
(lp1151
g650
ag187
ag71
ag120
ag292
ag120
ag61
ag120
ag61
atp1152
Rp1153
sbsbag0
(g31
g2
Ntp1154
Rp1155
(dp1156
g6
g0
(g7
g2
Ntp1157
Rp1158
(dp1159
g11
g0
(g12
g13
(lp1160
g61
ag149
ag292
ag292
ag120
ag71
ag120
ag100
ag51
ag216
ag120
ag206
atp1161
Rp1162
sbsbag0
(g31
g2
Ntp1163
Rp1164
(dp1165
g6
g0
(g7
g2
Ntp1166
Rp1167
(dp1168
g11
g0
(g12
g13
(lp1169
g81
ag206
ag120
ag384
atp1170
Rp1171
sbsbag955
ag0
(g31
g2
Ntp1172
Rp1173
(dp1174
g6
g0
(g7
g2
Ntp1175
Rp1176
(dp1177
g11
g0
(g12
g13
(lp1178
g650
ag81
ag51
ag263
ag120
ag187
ag100
atp1179
Rp1180
sbsbag0
(g31
g2
Ntp1181
Rp1182
(dp1183
g6
g0
(g7
g2
Ntp1184
Rp1185
(dp1186
g11
g0
(g12
g13
(lp1187
g384
ag120
atp1188
Rp1189
sbsbag161
ag0
(g31
g2
Ntp1190
Rp1191
(dp1192
g6
g0
(g7
g2
Ntp1193
Rp1194
(dp1195
g11
g0
(g12
g13
(lp1196
g177
ag149
ag61
ag51
ag81
ag110
ag81
atp1197
Rp1198
sbsbag717
ag0
(g31
g2
Ntp1199
Rp1200
(dp1201
g6
g0
(g7
g2
Ntp1202
Rp1203
(dp1204
g11
g0
(g12
g13
(lp1205
g81
ag61
ag100
atp1206
Rp1207
sbsbag0
(g31
g2
Ntp1208
Rp1209
(dp1210
g6
g0
(g7
g2
Ntp1211
Rp1212
(dp1213
g11
g0
(g12
g13
(lp1214
g81
ag100
atp1215
Rp1216
sbsbag0
(g31
g2
Ntp1217
Rp1218
(dp1219
g6
g0
(g7
g2
Ntp1220
Rp1221
(dp1222
g11
g0
(g12
g13
(lp1223
g206
ag81
ag130
ag51
ag81
atp1224
Rp1225
sbsbatp1226
Rp1227
sbsbag0
(g23
g2
Ntp1228
Rp1229
(dp1230
g6
g0
(g7
g2
Ntp1231
Rp1232
(dp1233
g11
g0
(g12
g13
(lp1234
g237
ag827
ag0
(g31
g2
Ntp1235
Rp1236
(dp1237
g6
g0
(g7
g2
Ntp1238
Rp1239
(dp1240
g11
g0
(g12
g13
(lp1241
g292
ag120
ag521
ag81
ag110
ag149
atp1242
Rp1243
sbsbag0
(g31
g2
Ntp1244
Rp1245
(dp1246
g6
g0
(g7
g2
Ntp1247
Rp1248
(dp1249
g11
g0
(g12
g13
(lp1250
g51
ag292
ag100
ag110
ag120
ag71
ag120
ag81
ag61
atp1251
Rp1252
sbsbag0
(g31
g2
Ntp1253
Rp1254
(dp1255
g6
g0
(g7
g2
Ntp1256
Rp1257
(dp1258
g11
g0
(g12
g13
(lp1259
g51
ag292
ag100
ag110
ag120
ag71
ag120
ag81
ag61
atp1260
Rp1261
sbsbag0
(g31
g2
Ntp1262
Rp1263
(dp1264
g6
g0
(g7
g2
Ntp1265
Rp1266
(dp1267
g11
g0
(g12
g13
(lp1268
g384
ag187
ag61
ag61
ag187
atp1269
Rp1270
sbsbag0
(g31
g2
Ntp1271
Rp1272
(dp1273
g6
g0
(g7
g2
Ntp1274
Rp1275
(dp1276
g11
g0
(g12
g13
(lp1277
g81
ag100
atp1278
Rp1279
sbsbag414
ag0
(g31
g2
Ntp1280
Rp1281
(dp1282
g6
g0
(g7
g2
Ntp1283
Rp1284
(dp1285
g11
g0
(g12
g13
(lp1286
g292
ag149
ag110
ag81
ag384
atp1287
Rp1288
sbsbatp1289
Rp1290
sbsbag0
(g23
g2
Ntp1291
Rp1292
(dp1293
g6
g0
(g7
g2
Ntp1294
Rp1295
(dp1296
g11
g0
(g12
g13
(lp1297
g0
(g31
g2
Ntp1298
Rp1299
(dp1300
g6
g0
(g7
g2
Ntp1301
Rp1302
(dp1303
g11
g0
(g12
g13
(lp1304
g0
(g39
g2
Ntp1305
Rp1306
(dp1307
g6
g0
(g7
g2
Ntp1308
Rp1309
(dp1310
g11
g0
(g12
g13
(lp1311
S'A'
p1312
atp1313
Rp1314
sbsbag292
ag120
ag130
ag51
ag187
ag384
atp1315
Rp1316
sbsbag0
(g31
g2
Ntp1317
Rp1318
(dp1319
g6
g0
(g7
g2
Ntp1320
Rp1321
(dp1322
g11
g0
(g12
g13
(lp1323
g100
ag110
ag120
ag61
ag100
ag120
ag130
ag51
ag81
atp1324
Rp1325
sbsbag142
ag304
ag199
ag0
(g31
g2
Ntp1326
Rp1327
(dp1328
g6
g0
(g7
g2
Ntp1329
Rp1330
(dp1331
g11
g0
(g12
g13
(lp1332
g100
ag120
ag206
ag71
ag120
ag216
ag51
ag206
ag100
atp1333
Rp1334
sbsbag0
(g31
g2
Ntp1335
Rp1336
(dp1337
g6
g0
(g7
g2
Ntp1338
Rp1339
(dp1340
g11
g0
(g12
g13
(lp1341
g384
ag187
ag51
ag110
ag120
ag61
atp1342
Rp1343
sbsbag910
ag0
(g31
g2
Ntp1344
Rp1345
(dp1346
g6
g0
(g7
g2
Ntp1347
Rp1348
(dp1349
g11
g0
(g12
g13
(lp1350
g273
ag81
ag206
ag81
ag206
ag187
ag100
ag120
ag61
atp1351
Rp1352
sbsbag0
(g31
g2
Ntp1353
Rp1354
(dp1355
g6
g0
(g7
g2
Ntp1356
Rp1357
(dp1358
g11
g0
(g12
g13
(lp1359
g292
ag120
ag521
ag81
ag110
ag149
atp1360
Rp1361
sbsbag827
ag1000
ag0
(g31
g2
Ntp1362
Rp1363
(dp1364
g6
g0
(g7
g2
Ntp1365
Rp1366
(dp1367
g11
g0
(g12
g13
(lp1368
g384
ag81
ag100
ag51
ag61
atp1369
Rp1370
sbsbag322
ag901
ag1200
atp1371
Rp1372
sbsbag0
(g23
g2
Ntp1373
Rp1374
(dp1375
g6
g0
(g7
g2
Ntp1376
Rp1377
(dp1378
g11
g0
(g12
g13
(lp1379
g0
(g31
g2
Ntp1380
Rp1381
(dp1382
g6
g0
(g7
g2
Ntp1383
Rp1384
(dp1385
g11
g0
(g12
g13
(lp1386
g1116
ag187
ag384
atp1387
Rp1388
sbsbag1009
ag0
(g31
g2
Ntp1389
Rp1390
(dp1391
g6
g0
(g7
g2
Ntp1392
Rp1393
(dp1394
g11
g0
(g12
g13
(lp1395
g100
ag51
ag110
ag177
ag120
ag61
atp1396
Rp1397
sbsbag0
(g31
g2
Ntp1398
Rp1399
(dp1400
g6
g0
(g7
g2
Ntp1401
Rp1402
(dp1403
g11
g0
(g12
g13
(lp1404
g61
ag51
ag61
ag71
ag120
ag177
ag120
ag100
atp1405
Rp1406
sbsbag781
ag0
(g31
g2
Ntp1407
Rp1408
(dp1409
g6
g0
(g7
g2
Ntp1410
Rp1411
(dp1412
g11
g0
(g12
g13
(lp1413
g384
ag187
ag263
ag206
ag187
atp1414
Rp1415
sbsbag487
ag0
(g31
g2
Ntp1416
Rp1417
(dp1418
g6
g0
(g7
g2
Ntp1419
Rp1420
(dp1421
g11
g0
(g12
g13
(lp1422
g187
ag384
ag81
ag100
atp1423
Rp1424
sbsbag699
ag0
(g31
g2
Ntp1425
Rp1426
(dp1427
g6
g0
(g7
g2
Ntp1428
Rp1429
(dp1430
g11
g0
(g12
g13
(lp1431
g206
ag120
ag61
ag292
atp1432
Rp1433
sbsbatp1434
Rp1435
sbsbatp1436
Rp1437
sbsbag0
(g15
g2
Ntp1438
Rp1439
(dp1440
g6
g0
(g7
g2
Ntp1441
Rp1442
(dp1443
g11
g0
(g12
g13
(lp1444
g0
(g23
g2
Ntp1445
Rp1446
(dp1447
g6
g0
(g7
g2
Ntp1448
Rp1449
(dp1450
g11
g0
(g12
g13
(lp1451
g0
(g31
g2
Ntp1452
Rp1453
(dp1454
g6
g0
(g7
g2
Ntp1455
Rp1456
(dp1457
g11
g0
(g12
g13
(lp1458
g1061
ag81
ag216
atp1459
Rp1460
sbsbag1082
ag910
ag0
(g31
g2
Ntp1461
Rp1462
(dp1463
g6
g0
(g7
g2
Ntp1464
Rp1465
(dp1466
g11
g0
(g12
g13
(lp1467
g187
ag100
atp1468
Rp1469
sbsbag142
ag1327
ag0
(g31
g2
Ntp1470
Rp1471
(dp1472
g6
g0
(g7
g2
Ntp1473
Rp1474
(dp1475
g11
g0
(g12
g13
(lp1476
g187
ag71
atp1477
Rp1478
sbsbag0
(g31
g2
Ntp1479
Rp1480
(dp1481
g6
g0
(g7
g2
Ntp1482
Rp1483
(dp1484
g11
g0
(g12
g13
(lp1485
g61
ag71
ag81
ag292
ag81
ag110
ag120
ag61
ag130
ag51
ag81
atp1486
Rp1487
sbsbag1336
ag781
atp1488
Rp1489
sbsbag0
(g23
g2
Ntp1490
Rp1491
(dp1492
g6
g0
(g7
g2
Ntp1493
Rp1494
(dp1495
g11
g0
(g12
g13
(lp1496
g237
ag199
ag1236
ag0
(g31
g2
Ntp1497
Rp1498
(dp1499
g6
g0
(g7
g2
Ntp1500
Rp1501
(dp1502
g11
g0
(g12
g13
(lp1503
g216
ag120
ag187
ag384
atp1504
Rp1505
sbsbag560
ag505
ag578
ag505
ag560
atp1506
Rp1507
sbsbag0
(g23
g2
Ntp1508
Rp1509
(dp1510
g6
g0
(g7
g2
Ntp1511
Rp1512
(dp1513
g11
g0
(g12
g13
(lp1514
g973
ag854
ag845
ag643
atp1515
Rp1516
sbsbag0
(g23
g2
Ntp1517
Rp1518
(dp1519
g6
g0
(g7
g2
Ntp1520
Rp1521
(dp1522
g11
g0
(g12
g13
(lp1523
g0
(g31
g2
Ntp1524
Rp1525
(dp1526
g6
g0
(g7
g2
Ntp1527
Rp1528
(dp1529
g11
g0
(g12
g13
(lp1530
g806
ag187
ag51
ag110
ag120
ag61
atp1531
Rp1532
sbsbag0
(g31
g2
Ntp1533
Rp1534
(dp1535
g6
g0
(g7
g2
Ntp1536
Rp1537
(dp1538
g11
g0
(g12
g13
(lp1539
g110
ag51
ag100
ag110
ag51
ag384
atp1540
Rp1541
sbsbag0
(g31
g2
Ntp1542
Rp1543
(dp1544
g6
g0
(g7
g2
Ntp1545
Rp1546
(dp1547
g11
g0
(g12
g13
(lp1548
g71
ag51
ag110
ag61
ag51
ag61
atp1549
Rp1550
sbsbag377
ag560
ag199
atp1551
Rp1552
sbsbag0
(g23
g2
Ntp1553
Rp1554
(dp1555
g6
g0
(g7
g2
Ntp1556
Rp1557
(dp1558
g11
g0
(g12
g13
(lp1559
g735
ag0
(g31
g2
Ntp1560
Rp1561
(dp1562
g6
g0
(g7
g2
Ntp1563
Rp1564
(dp1565
g11
g0
(g12
g13
(lp1566
g273
ag51
ag292
ag177
ag51
ag100
ag187
ag100
ag81
atp1567
Rp1568
sbsbag772
ag955
ag1561
ag0
(g31
g2
Ntp1569
Rp1570
(dp1571
g6
g0
(g7
g2
Ntp1572
Rp1573
(dp1574
g11
g0
(g12
g13
(lp1575
g71
ag149
ag206
ag216
ag120
ag384
ag81
ag206
ag100
ag51
ag384
atp1576
Rp1577
sbsbatp1578
Rp1579
sbsbag0
(g23
g2
Ntp1580
Rp1581
(dp1582
g6
g0
(g7
g2
Ntp1583
Rp1584
(dp1585
g11
g0
(g12
g13
(lp1586
g0
(g31
g2
Ntp1587
Rp1588
(dp1589
g6
g0
(g7
g2
Ntp1590
Rp1591
(dp1592
g11
g0
(g12
g13
(lp1593
g1116
ag51
ag292
ag292
ag187
atp1594
Rp1595
sbsbag0
(g31
g2
Ntp1596
Rp1597
(dp1598
g6
g0
(g7
g2
Ntp1599
Rp1600
(dp1601
g11
g0
(g12
g13
(lp1602
g650
ag187
ag71
ag120
ag292
ag120
ag61
ag120
atp1603
Rp1604
sbsbatp1605
Rp1606
sbsbag0
(g23
g2
Ntp1607
Rp1608
(dp1609
g6
g0
(g7
g2
Ntp1610
Rp1611
(dp1612
g11
g0
(g12
g13
(lp1613
g1299
ag1164
ag0
(g31
g2
Ntp1614
Rp1615
(dp1616
g6
g0
(g7
g2
Ntp1617
Rp1618
(dp1619
g11
g0
(g12
g13
(lp1620
g292
ag120
ag263
ag51
ag292
ag187
atp1621
Rp1622
sbsbag0
(g31
g2
Ntp1623
Rp1624
(dp1625
g6
g0
(g7
g2
Ntp1626
Rp1627
(dp1628
g11
g0
(g12
g13
(lp1629
g71
ag149
ag384
ag384
ag149
ag216
ag149
atp1630
Rp1631
sbsbag304
ag478
ag1272
ag708
ag0
(g31
g2
Ntp1632
Rp1633
(dp1634
g6
g0
(g7
g2
Ntp1635
Rp1636
(dp1637
g11
g0
(g12
g13
(lp1638
g71
ag149
ag206
ag273
ag187
ag292
ag292
ag120
ag61
atp1639
Rp1640
sbsbag1164
atp1641
Rp1642
sbsbatp1643
Rp1644
sbsbag0
(g15
g2
Ntp1645
Rp1646
(dp1647
g6
g0
(g7
g2
Ntp1648
Rp1649
(dp1650
g11
g0
(g12
g13
(lp1651
g0
(g23
g2
Ntp1652
Rp1653
(dp1654
g6
g0
(g7
g2
Ntp1655
Rp1656
(dp1657
g11
g0
(g12
g13
(lp1658
g1453
ag1164
ag0
(g31
g2
Ntp1659
Rp1660
(dp1661
g6
g0
(g7
g2
Ntp1662
Rp1663
(dp1664
g11
g0
(g12
g13
(lp1665
g81
ag110
ag149
ag61
atp1666
Rp1667
sbsbag1480
ag1471
ag0
(g31
g2
Ntp1668
Rp1669
(dp1670
g6
g0
(g7
g2
Ntp1671
Rp1672
(dp1673
g11
g0
(g12
g13
(lp1674
g273
ag81
ag861
ag120
ag71
ag51
ag292
ag187
atp1675
Rp1676
sbsbag0
(g31
g2
Ntp1677
Rp1678
(dp1679
g6
g0
(g7
g2
Ntp1680
Rp1681
(dp1682
g11
g0
(g12
g13
(lp1683
g61
ag81
ag216
atp1684
Rp1685
sbsbag1570
ag487
ag496
ag423
atp1686
Rp1687
sbsbag0
(g23
g2
Ntp1688
Rp1689
(dp1690
g6
g0
(g7
g2
Ntp1691
Rp1692
(dp1693
g11
g0
(g12
g13
(lp1694
g237
ag0
(g31
g2
Ntp1695
Rp1696
(dp1697
g6
g0
(g7
g2
Ntp1698
Rp1699
(dp1700
g11
g0
(g12
g13
(lp1701
g61
ag187
ag263
ag120
ag100
ag100
ag120
ag61
atp1702
Rp1703
sbsbag1218
ag0
(g31
g2
Ntp1704
Rp1705
(dp1706
g6
g0
(g7
g2
Ntp1707
Rp1708
(dp1709
g11
g0
(g12
g13
(lp1710
g206
ag149
ag206
atp1711
Rp1712
sbsbag0
(g31
g2
Ntp1713
Rp1714
(dp1715
g6
g0
(g7
g2
Ntp1716
Rp1717
(dp1718
g11
g0
(g12
g13
(lp1719
g130
ag51
ag187
ag384
atp1720
Rp1721
sbsbag0
(g31
g2
Ntp1722
Rp1723
(dp1724
g6
g0
(g7
g2
Ntp1725
Rp1726
(dp1727
g11
g0
(g12
g13
(lp1728
g273
ag149
ag292
ag51
ag100
ag177
ag187
ag100
atp1729
Rp1730
sbsbag487
ag496
ag0
(g31
g2
Ntp1731
Rp1732
(dp1733
g6
g0
(g7
g2
Ntp1734
Rp1735
(dp1736
g11
g0
(g12
g13
(lp1737
g650
ag81
ag110
ag384
ag81
ag206
ag100
ag51
ag384
atp1738
Rp1739
sbsbag0
(g31
g2
Ntp1740
Rp1741
(dp1742
g6
g0
(g7
g2
Ntp1743
Rp1744
(dp1745
g11
g0
(g12
g13
(lp1746
g177
ag51
ag110
ag51
ag61
atp1747
Rp1748
sbsbag0
(g31
g2
Ntp1749
Rp1750
(dp1751
g6
g0
(g7
g2
Ntp1752
Rp1753
(dp1754
g11
g0
(g12
g13
(lp1755
g187
ag216
ag120
ag177
ag120
ag61
ag71
ag120
ag206
ag263
atp1756
Rp1757
sbsbatp1758
Rp1759
sbsbag0
(g23
g2
Ntp1760
Rp1761
(dp1762
g6
g0
(g7
g2
Ntp1763
Rp1764
(dp1765
g11
g0
(g12
g13
(lp1766
g0
(g31
g2
Ntp1767
Rp1768
(dp1769
g6
g0
(g7
g2
Ntp1770
Rp1771
(dp1772
g11
g0
(g12
g13
(lp1773
g244
ag861
ag187
ag61
ag81
ag292
ag292
ag51
ag61
atp1774
Rp1775
sbsbag331
ag0
(g31
g2
Ntp1776
Rp1777
(dp1778
g6
g0
(g7
g2
Ntp1779
Rp1780
(dp1781
g11
g0
(g12
g13
(lp1782
g61
ag81
ag384
atp1783
Rp1784
sbsbag1209
ag1281
ag1146
ag256
ag587
ag0
(g31
g2
Ntp1785
Rp1786
(dp1787
g6
g0
(g7
g2
Ntp1788
Rp1789
(dp1790
g11
g0
(g12
g13
(lp1791
g51
ag292
ag100
ag110
ag120
ag71
ag81
ag61
atp1792
Rp1793
sbsbag662
atp1794
Rp1795
sbsbag0
(g23
g2
Ntp1796
Rp1797
(dp1798
g6
g0
(g7
g2
Ntp1799
Rp1800
(dp1801
g11
g0
(g12
g13
(lp1802
g0
(g31
g2
Ntp1803
Rp1804
(dp1805
g6
g0
(g7
g2
Ntp1806
Rp1807
(dp1808
g11
g0
(g12
g13
(lp1809
g0
(g39
g2
Ntp1810
Rp1811
(dp1812
g6
g0
(g7
g2
Ntp1813
Rp1814
(dp1815
g11
g0
(g12
g13
(lp1816
S'Q'
p1817
atp1818
Rp1819
sbsbag51
ag120
ag61
ag130
ag51
ag81
atp1820
Rp1821
sbsbag836
ag1182
ag781
ag587
ag0
(g31
g2
Ntp1822
Rp1823
(dp1824
g6
g0
(g7
g2
Ntp1825
Rp1826
(dp1827
g11
g0
(g12
g13
(lp1828
g120
ag206
ag100
ag81
ag110
ag216
ag51
ag384
atp1829
Rp1830
sbsbag0
(g31
g2
Ntp1831
Rp1832
(dp1833
g6
g0
(g7
g2
Ntp1834
Rp1835
(dp1836
g11
g0
(g12
g13
(lp1837
g292
ag51
ag71
ag100
ag51
ag61
atp1838
Rp1839
sbsbag928
ag901
ag0
(g31
g2
Ntp1840
Rp1841
(dp1842
g6
g0
(g7
g2
Ntp1843
Rp1844
(dp1845
g11
g0
(g12
g13
(lp1846
g206
ag51
ag206
ag71
atp1847
Rp1848
sbsbatp1849
Rp1850
sbsbag0
(g23
g2
Ntp1851
Rp1852
(dp1853
g6
g0
(g7
g2
Ntp1854
Rp1855
(dp1856
g11
g0
(g12
g13
(lp1857
g0
(g31
g2
Ntp1858
Rp1859
(dp1860
g6
g0
(g7
g2
Ntp1861
Rp1862
(dp1863
g11
g0
(g12
g13
(lp1864
g244
ag81
ag292
ag292
ag81
ag206
ag100
ag81
ag61
ag130
ag51
ag81
atp1865
Rp1866
sbsbag845
ag0
(g31
g2
Ntp1867
Rp1868
(dp1869
g6
g0
(g7
g2
Ntp1870
Rp1871
(dp1872
g11
g0
(g12
g13
(lp1873
g187
ag71
ag71
ag51
ag384
ag61
ag187
ag206
atp1874
Rp1875
sbsbag991
ag487
ag496
ag0
(g31
g2
Ntp1876
Rp1877
(dp1878
g6
g0
(g7
g2
Ntp1879
Rp1880
(dp1881
g11
g0
(g12
g13
(lp1882
g61
ag149
ag292
ag292
ag120
ag71
ag120
ag100
ag51
ag216
ag120
ag206
atp1883
Rp1884
sbsbag1408
ag0
(g31
g2
Ntp1885
Rp1886
(dp1887
g6
g0
(g7
g2
Ntp1888
Rp1889
(dp1890
g11
g0
(g12
g13
(lp1891
g650
ag110
ag120
ag206
ag263
ag120
ag292
ag292
ag187
atp1892
Rp1893
sbsbag1009
atp1894
Rp1895
sbsbag0
(g23
g2
Ntp1896
Rp1897
(dp1898
g6
g0
(g7
g2
Ntp1899
Rp1900
(dp1901
g11
g0
(g12
g13
(lp1902
g0
(g31
g2
Ntp1903
Rp1904
(dp1905
g6
g0
(g7
g2
Ntp1906
Rp1907
(dp1908
g11
g0
(g12
g13
(lp1909
g806
ag187
ag81
ag71
ag81
ag206
ag187
ag61
atp1910
Rp1911
sbsbag901
ag1254
ag1263
atp1912
Rp1913
sbsbag0
(g23
g2
Ntp1914
Rp1915
(dp1916
g6
g0
(g7
g2
Ntp1917
Rp1918
(dp1919
g11
g0
(g12
g13
(lp1920
g349
ag781
ag836
ag0
(g31
g2
Ntp1921
Rp1922
(dp1923
g6
g0
(g7
g2
Ntp1924
Rp1925
(dp1926
g11
g0
(g12
g13
(lp1927
g71
ag149
ag206
ag61
ag81
ag71
ag100
ag81
ag100
ag51
ag110
atp1928
Rp1929
sbsbag1254
ag982
ag1678
ag256
ag1390
atp1930
Rp1931
sbsbag0
(g23
g2
Ntp1932
Rp1933
(dp1934
g6
g0
(g7
g2
Ntp1935
Rp1936
(dp1937
g11
g0
(g12
g13
(lp1938
g882
ag331
ag1173
ag0
(g31
g2
Ntp1939
Rp1940
(dp1941
g6
g0
(g7
g2
Ntp1942
Rp1943
(dp1944
g11
g0
(g12
g13
(lp1945
g61
ag187
ag177
ag120
ag81
ag206
atp1946
Rp1947
sbsbatp1948
Rp1949
sbsbag0
(g23
g2
Ntp1950
Rp1951
(dp1952
g6
g0
(g7
g2
Ntp1953
Rp1954
(dp1955
g11
g0
(g12
g13
(lp1956
g237
ag304
ag170
ag717
atp1957
Rp1958
sbsbatp1959
Rp1960
sbsbag0
(g15
g2
Ntp1961
Rp1962
(dp1963
g6
g0
(g7
g2
Ntp1964
Rp1965
(dp1966
g11
g0
(g12
g13
(lp1967
g0
(g23
g2
Ntp1968
Rp1969
(dp1970
g6
g0
(g7
g2
Ntp1971
Rp1972
(dp1973
g11
g0
(g12
g13
(lp1974
g1054
ag818
ag396
ag1146
ag1705
ag1777
ag0
(g31
g2
Ntp1975
Rp1976
(dp1977
g6
g0
(g7
g2
Ntp1978
Rp1979
(dp1980
g11
g0
(g12
g13
(lp1981
g81
ag263
ag81
ag100
atp1982
Rp1983
sbsbag699
ag405
ag1408
atp1984
Rp1985
sbsbag0
(g23
g2
Ntp1986
Rp1987
(dp1988
g6
g0
(g7
g2
Ntp1989
Rp1990
(dp1991
g11
g0
(g12
g13
(lp1992
g1859
ag0
(g31
g2
Ntp1993
Rp1994
(dp1995
g6
g0
(g7
g2
Ntp1996
Rp1997
(dp1998
g11
g0
(g12
g13
(lp1999
g273
ag187
ag110
ag120
ag51
ag61
atp2000
Rp2001
sbsbag754
ag0
(g31
g2
Ntp2002
Rp2003
(dp2004
g6
g0
(g7
g2
Ntp2005
Rp2006
(dp2007
g11
g0
(g12
g13
(lp2008
g177
ag51
ag110
ag51
ag61
atp2009
Rp2010
sbsbag772
ag505
ag1714
ag781
ag772
atp2011
Rp2012
sbsbag0
(g23
g2
Ntp2013
Rp2014
(dp2015
g6
g0
(g7
g2
Ntp2016
Rp2017
(dp2018
g11
g0
(g12
g13
(lp2019
g1299
ag1363
ag0
(g31
g2
Ntp2020
Rp2021
(dp2022
g6
g0
(g7
g2
Ntp2023
Rp2024
(dp2025
g11
g0
(g12
g13
(lp2026
g384
ag187
ag263
ag206
ag187
atp2027
Rp2028
sbsbag199
ag1705
ag910
ag946
ag414
ag643
ag0
(g31
g2
Ntp2029
Rp2030
(dp2031
g6
g0
(g7
g2
Ntp2032
Rp2033
(dp2034
g11
g0
(g12
g13
(lp2035
g110
ag120
ag61
ag51
ag61
atp2036
Rp2037
sbsbatp2038
Rp2039
sbsbag0
(g23
g2
Ntp2040
Rp2041
(dp2042
g6
g0
(g7
g2
Ntp2043
Rp2044
(dp2045
g11
g0
(g12
g13
(lp2046
g1453
ag827
ag1750
ag1336
atp2047
Rp2048
sbsbag0
(g23
g2
Ntp2049
Rp2050
(dp2051
g6
g0
(g7
g2
Ntp2052
Rp2053
(dp2054
g11
g0
(g12
g13
(lp2055
g1381
ag0
(g31
g2
Ntp2056
Rp2057
(dp2058
g6
g0
(g7
g2
Ntp2059
Rp2060
(dp2061
g11
g0
(g12
g13
(lp2062
g110
ag861
ag149
ag206
ag71
ag51
ag61
atp2063
Rp2064
sbsbag937
ag161
ag199
ag0
(g31
g2
Ntp2065
Rp2066
(dp2067
g6
g0
(g7
g2
Ntp2068
Rp2069
(dp2070
g11
g0
(g12
g13
(lp2071
g177
ag149
ag110
ag100
ag100
ag120
ag100
ag149
ag110
atp2072
Rp2073
sbsbag0
(g31
g2
Ntp2074
Rp2075
(dp2076
g6
g0
(g7
g2
Ntp2077
Rp2078
(dp2079
g11
g0
(g12
g13
(lp2080
g292
ag81
ag71
ag100
ag51
ag61
atp2081
Rp2082
sbsbag596
ag854
ag0
(g31
g2
Ntp2083
Rp2084
(dp2085
g6
g0
(g7
g2
Ntp2086
Rp2087
(dp2088
g11
g0
(g12
g13
(lp2089
g384
ag187
ag51
ag110
ag120
ag61
atp2090
Rp2091
sbsbag0
(g31
g2
Ntp2092
Rp2093
(dp2094
g6
g0
(g7
g2
Ntp2095
Rp2096
(dp2097
g11
g0
(g12
g13
(lp2098
g273
ag81
ag292
atp2099
Rp2100
sbsbag1624
ag322
ag578
ag1209
ag1841
atp2101
Rp2102
sbsbag0
(g23
g2
Ntp2103
Rp2104
(dp2105
g6
g0
(g7
g2
Ntp2106
Rp2107
(dp2108
g11
g0
(g12
g13
(lp2109
g882
ag1254
ag578
ag928
ag910
ag1091
ag368
atp2110
Rp2111
sbsbag0
(g23
g2
Ntp2112
Rp2113
(dp2114
g6
g0
(g7
g2
Ntp2115
Rp2116
(dp2117
g11
g0
(g12
g13
(lp2118
g680
ag854
ag818
ag1471
ag717
ag0
(g31
g2
Ntp2119
Rp2120
(dp2121
g6
g0
(g7
g2
Ntp2122
Rp2123
(dp2124
g11
g0
(g12
g13
(lp2125
g187
ag51
ag71
ag100
ag149
ag110
atp2126
Rp2127
sbsbag161
ag643
ag2075
ag505
atp2128
Rp2129
sbsbag0
(g23
g2
Ntp2130
Rp2131
(dp2132
g6
g0
(g7
g2
Ntp2133
Rp2134
(dp2135
g11
g0
(g12
g13
(lp2136
g1859
ag0
(g31
g2
Ntp2137
Rp2138
(dp2139
g6
g0
(g7
g2
Ntp2140
Rp2141
(dp2142
g11
g0
(g12
g13
(lp2143
g861
ag187
ag521
ag120
ag100
ag187
ag206
ag100
atp2144
Rp2145
sbsbag0
(g31
g2
Ntp2146
Rp2147
(dp2148
g6
g0
(g7
g2
Ntp2149
Rp2150
(dp2151
g11
g0
(g12
g13
(lp2152
g384
ag149
ag110
ag521
ag120
atp2153
Rp2154
sbsbag93
ag0
(g31
g2
Ntp2155
Rp2156
(dp2157
g6
g0
(g7
g2
Ntp2158
Rp2159
(dp2160
g11
g0
(g12
g13
(lp2161
g61
ag81
ag206
ag81
ag71
ag100
ag51
ag61
atp2162
Rp2163
sbsbag1209
ag0
(g31
g2
Ntp2164
Rp2165
(dp2166
g6
g0
(g7
g2
Ntp2167
Rp2168
(dp2169
g11
g0
(g12
g13
(lp2170
g206
ag81
ag100
ag51
ag61
atp2171
Rp2172
sbsbag1209
ag0
(g31
g2
Ntp2173
Rp2174
(dp2175
g6
g0
(g7
g2
Ntp2176
Rp2177
(dp2178
g11
g0
(g12
g13
(lp2179
g384
ag187
ag292
ag81
ag61
ag51
ag187
ag216
ag187
atp2180
Rp2181
sbsbag0
(g31
g2
Ntp2182
Rp2183
(dp2184
g6
g0
(g7
g2
Ntp2185
Rp2186
(dp2187
g11
g0
(g12
g13
(lp2188
g650
ag187
ag384
ag81
ag61
atp2189
Rp2190
sbsbag1471
ag1390
ag0
(g31
g2
Ntp2191
Rp2192
(dp2193
g6
g0
(g7
g2
Ntp2194
Rp2195
(dp2196
g11
g0
(g12
g13
(lp2197
g81
ag263
ag81
ag61
ag100
ag187
ag61
atp2198
Rp2199
sbsbatp2200
Rp2201
sbsbag0
(g23
g2
Ntp2202
Rp2203
(dp2204
g6
g0
(g7
g2
Ntp2205
Rp2206
(dp2207
g11
g0
(g12
g13
(lp2208
g0
(g31
g2
Ntp2209
Rp2210
(dp2211
g6
g0
(g7
g2
Ntp2212
Rp2213
(dp2214
g11
g0
(g12
g13
(lp2215
g742
ag292
ag187
ag61
ag61
atp2216
Rp2217
sbsbag0
(g31
g2
Ntp2218
Rp2219
(dp2220
g6
g0
(g7
g2
Ntp2221
Rp2222
(dp2223
g11
g0
(g12
g13
(lp2224
g187
ag177
ag100
ag81
ag206
ag100
atp2225
Rp2226
sbsbag0
(g31
g2
Ntp2227
Rp2228
(dp2229
g6
g0
(g7
g2
Ntp2230
Rp2231
(dp2232
g11
g0
(g12
g13
(lp2233
g100
ag187
ag71
ag120
ag100
ag120
atp2234
Rp2235
sbsbag0
(g31
g2
Ntp2236
Rp2237
(dp2238
g6
g0
(g7
g2
Ntp2239
Rp2240
(dp2241
g11
g0
(g12
g13
(lp2242
g61
ag149
ag71
ag120
ag149
ag61
ag130
ag51
atp2243
Rp2244
sbsbag0
(g31
g2
Ntp2245
Rp2246
(dp2247
g6
g0
(g7
g2
Ntp2248
Rp2249
(dp2250
g11
g0
(g12
g13
(lp2251
g187
ag216
atp2252
Rp2253
sbsbag0
(g31
g2
Ntp2254
Rp2255
(dp2256
g6
g0
(g7
g2
Ntp2257
Rp2258
(dp2259
g11
g0
(g12
g13
(lp2260
g292
ag120
ag100
ag149
ag110
ag187
atp2261
Rp2262
sbsbag0
(g31
g2
Ntp2263
Rp2264
(dp2265
g6
g0
(g7
g2
Ntp2266
Rp2267
(dp2268
g11
g0
(g12
g13
(lp2269
g100
ag149
ag110
ag130
ag51
ag81
ag206
ag100
atp2270
Rp2271
sbsbag0
(g31
g2
Ntp2272
Rp2273
(dp2274
g6
g0
(g7
g2
Ntp2275
Rp2276
(dp2277
g11
g0
(g12
g13
(lp2278
g177
ag81
ag110
atp2279
Rp2280
sbsbag0
(g31
g2
Ntp2281
Rp2282
(dp2283
g6
g0
(g7
g2
Ntp2284
Rp2285
(dp2286
g11
g0
(g12
g13
(lp2287
g71
ag149
ag206
ag51
ag521
ag120
ag187
atp2288
Rp2289
sbsbag0
(g31
g2
Ntp2290
Rp2291
(dp2292
g6
g0
(g7
g2
Ntp2293
Rp2294
(dp2295
g11
g0
(g12
g13
(lp2296
g206
ag149
ag61
ag100
ag110
ag187
atp2297
Rp2298
sbsbag2273
ag0
(g31
g2
Ntp2299
Rp2300
(dp2301
g6
g0
(g7
g2
Ntp2302
Rp2303
(dp2304
g11
g0
(g12
g13
(lp2305
g120
ag206
ag71
ag81
ag177
ag100
ag149
ag61
atp2306
Rp2307
sbsbag0
(g31
g2
Ntp2308
Rp2309
(dp2310
g6
g0
(g7
g2
Ntp2311
Rp2312
(dp2313
g11
g0
(g12
g13
(lp2314
g861
ag120
ag384
ag81
ag206
ag187
ag81
ag149
ag61
atp2315
Rp2316
sbsbatp2317
Rp2318
sbsbag0
(g23
g2
Ntp2319
Rp2320
(dp2321
g6
g0
(g7
g2
Ntp2322
Rp2323
(dp2324
g11
g0
(g12
g13
(lp2325
g1525
ag0
(g31
g2
Ntp2326
Rp2327
(dp2328
g6
g0
(g7
g2
Ntp2329
Rp2330
(dp2331
g11
g0
(g12
g13
(lp2332
g273
ag149
ag292
ag51
ag100
ag177
ag187
ag100
atp2333
Rp2334
sbsbag910
ag1669
ag1426
ag0
(g31
g2
Ntp2335
Rp2336
(dp2337
g6
g0
(g7
g2
Ntp2338
Rp2339
(dp2340
g11
g0
(g12
g13
(lp2341
g650
ag187
ag51
ag71
ag120
ag521
ag51
ag61
atp2342
Rp2343
sbsbag0
(g31
g2
Ntp2344
Rp2345
(dp2346
g6
g0
(g7
g2
Ntp2347
Rp2348
(dp2349
g11
g0
(g12
g13
(lp2350
g81
ag292
ag81
ag120
ag650
ag81
ag206
ag216
atp2351
Rp2352
sbsbag2345
ag596
ag1191
atp2353
Rp2354
sbsbag0
(g23
g2
Ntp2355
Rp2356
(dp2357
g6
g0
(g7
g2
Ntp2358
Rp2359
(dp2360
g11
g0
(g12
g13
(lp2361
g349
ag587
ag1218
ag331
ag836
ag505
ag0
(g31
g2
Ntp2362
Rp2363
(dp2364
g6
g0
(g7
g2
Ntp2365
Rp2366
(dp2367
g11
g0
(g12
g13
(lp2368
g177
ag149
ag110
ag100
ag100
ag120
ag100
ag149
ag110
atp2369
Rp2370
sbsbatp2371
Rp2372
sbsbag0
(g23
g2
Ntp2373
Rp2374
(dp2375
g6
g0
(g7
g2
Ntp2376
Rp2377
(dp2378
g11
g0
(g12
g13
(lp2379
g1054
ag0
(g31
g2
Ntp2380
Rp2381
(dp2382
g6
g0
(g7
g2
Ntp2383
Rp2384
(dp2385
g11
g0
(g12
g13
(lp2386
g177
ag51
ag292
ag273
ag120
ag206
ag187
ag110
atp2387
Rp2388
sbsbag1570
ag643
atp2389
Rp2390
sbsbag0
(g23
g2
Ntp2391
Rp2392
(dp2393
g6
g0
(g7
g2
Ntp2394
Rp2395
(dp2396
g11
g0
(g12
g13
(lp2397
g0
(g31
g2
Ntp2398
Rp2399
(dp2400
g6
g0
(g7
g2
Ntp2401
Rp2402
(dp2403
g11
g0
(g12
g13
(lp2404
g1116
ag51
ag292
ag292
ag187
ag384
atp2405
Rp2406
sbsbag0
(g31
g2
Ntp2407
Rp2408
(dp2409
g6
g0
(g7
g2
Ntp2410
Rp2411
(dp2412
g11
g0
(g12
g13
(lp2413
g61
ag81
ag216
atp2414
Rp2415
sbsbag0
(g31
g2
Ntp2416
Rp2417
(dp2418
g6
g0
(g7
g2
Ntp2419
Rp2420
(dp2421
g11
g0
(g12
g13
(lp2422
g273
ag81
ag292
ag120
ag100
atp2423
Rp2424
sbsbag0
(g31
g2
Ntp2425
Rp2426
(dp2427
g6
g0
(g7
g2
Ntp2428
Rp2429
(dp2430
g11
g0
(g12
g13
(lp2431
g110
ag51
ag100
ag110
ag51
ag384
atp2432
Rp2433
sbsbag1696
ag1741
ag946
ag2345
ag982
atp2434
Rp2435
sbsbatp2436
Rp2437
sbsbag0
(g15
g2
Ntp2438
Rp2439
(dp2440
g6
g0
(g7
g2
Ntp2441
Rp2442
(dp2443
g11
g0
(g12
g13
(lp2444
g0
(g23
g2
Ntp2445
Rp2446
(dp2447
g6
g0
(g7
g2
Ntp2448
Rp2449
(dp2450
g11
g0
(g12
g13
(lp2451
g0
(g31
g2
Ntp2452
Rp2453
(dp2454
g6
g0
(g7
g2
Ntp2455
Rp2456
(dp2457
g11
g0
(g12
g13
(lp2458
g457
ag81
ag61
ag100
ag120
ag521
ag51
ag292
ag51
ag384
atp2459
Rp2460
sbsbag487
ag496
ag1146
ag1615
ag560
ag1254
ag1263
atp2461
Rp2462
sbsbag0
(g23
g2
Ntp2463
Rp2464
(dp2465
g6
g0
(g7
g2
Ntp2466
Rp2467
(dp2468
g11
g0
(g12
g13
(lp2469
g237
ag331
ag836
ag772
ag2417
ag754
ag1000
ag1009
ag487
ag496
ag533
atp2470
Rp2471
sbsbag0
(g23
g2
Ntp2472
Rp2473
(dp2474
g6
g0
(g7
g2
Ntp2475
Rp2476
(dp2477
g11
g0
(g12
g13
(lp2478
g0
(g31
g2
Ntp2479
Rp2480
(dp2481
g6
g0
(g7
g2
Ntp2482
Rp2483
(dp2484
g11
g0
(g12
g13
(lp2485
g889
ag206
ag100
ag81
ag110
ag216
ag51
ag384
atp2486
Rp2487
sbsbag1209
ag2174
ag2183
ag1471
ag937
ag377
ag0
(g31
g2
Ntp2488
Rp2489
(dp2490
g6
g0
(g7
g2
Ntp2491
Rp2492
(dp2493
g11
g0
(g12
g13
(lp2494
g177
ag110
ag120
ag384
ag120
ag61
atp2495
Rp2496
sbsbag827
ag643
atp2497
Rp2498
sbsbag0
(g23
g2
Ntp2499
Rp2500
(dp2501
g6
g0
(g7
g2
Ntp2502
Rp2503
(dp2504
g11
g0
(g12
g13
(lp2505
g1299
ag377
ag0
(g31
g2
Ntp2506
Rp2507
(dp2508
g6
g0
(g7
g2
Ntp2509
Rp2510
(dp2511
g11
g0
(g12
g13
(lp2512
g206
ag81
ag130
ag51
ag81
atp2513
Rp2514
sbsbag0
(g31
g2
Ntp2515
Rp2516
(dp2517
g6
g0
(g7
g2
Ntp2518
Rp2519
(dp2520
g11
g0
(g12
g13
(lp2521
g216
ag120
ag263
ag206
ag120
ag61
ag61
ag120
ag384
atp2522
Rp2523
sbsbag560
ag0
(g31
g2
Ntp2524
Rp2525
(dp2526
g6
g0
(g7
g2
Ntp2527
Rp2528
(dp2529
g11
g0
(g12
g13
(lp2530
g100
ag81
ag292
ag292
ag51
ag61
atp2531
Rp2532
sbsbag0
(g31
g2
Ntp2533
Rp2534
(dp2535
g6
g0
(g7
g2
Ntp2536
Rp2537
(dp2538
g11
g0
(g12
g13
(lp2539
g650
ag187
ag71
ag120
ag292
ag120
ag61
ag120
ag61
atp2540
Rp2541
sbsbag2363
ag854
ag2030
atp2542
Rp2543
sbsbag0
(g23
g2
Ntp2544
Rp2545
(dp2546
g6
g0
(g7
g2
Ntp2547
Rp2548
(dp2549
g11
g0
(g12
g13
(lp2550
g1381
ag2408
ag2525
ag1200
atp2551
Rp2552
sbsbag0
(g23
g2
Ntp2553
Rp2554
(dp2555
g6
g0
(g7
g2
Ntp2556
Rp2557
(dp2558
g11
g0
(g12
g13
(lp2559
g1109
ag827
ag1408
ag901
ag2525
ag2174
ag1345
ag772
ag560
ag2417
atp2560
Rp2561
sbsbag0
(g23
g2
Ntp2562
Rp2563
(dp2564
g6
g0
(g7
g2
Ntp2565
Rp2566
(dp2567
g11
g0
(g12
g13
(lp2568
g1525
ag827
ag1714
ag0
(g31
g2
Ntp2569
Rp2570
(dp2571
g6
g0
(g7
g2
Ntp2572
Rp2573
(dp2574
g11
g0
(g12
g13
(lp2575
g384
ag149
ag292
ag81
ag61
ag100
ag120
ag81
atp2576
Rp2577
sbsbag93
ag142
ag1272
ag708
ag2075
atp2578
Rp2579
sbsbag0
(g23
g2
Ntp2580
Rp2581
(dp2582
g6
g0
(g7
g2
Ntp2583
Rp2584
(dp2585
g11
g0
(g12
g13
(lp2586
g2453
ag1209
ag1543
ag0
(g31
g2
Ntp2587
Rp2588
(dp2589
g6
g0
(g7
g2
Ntp2590
Rp2591
(dp2592
g11
g0
(g12
g13
(lp2593
g100
ag81
ag292
ag292
ag51
ag61
atp2594
Rp2595
sbsbag772
ag199
ag322
atp2596
Rp2597
sbsbag0
(g23
g2
Ntp2598
Rp2599
(dp2600
g6
g0
(g7
g2
Ntp2601
Rp2602
(dp2603
g11
g0
(g12
g13
(lp2604
g1525
ag2516
ag1281
ag772
ag569
ag1091
ag432
atp2605
Rp2606
sbsbag0
(g23
g2
Ntp2607
Rp2608
(dp2609
g6
g0
(g7
g2
Ntp2610
Rp2611
(dp2612
g11
g0
(g12
g13
(lp2613
g1453
ag331
ag717
ag0
(g31
g2
Ntp2614
Rp2615
(dp2616
g6
g0
(g7
g2
Ntp2617
Rp2618
(dp2619
g11
g0
(g12
g13
(lp2620
g521
ag292
ag187
ag206
ag216
ag120
ag100
atp2621
Rp2622
sbsbag0
(g31
g2
Ntp2623
Rp2624
(dp2625
g6
g0
(g7
g2
Ntp2626
Rp2627
(dp2628
g11
g0
(g12
g13
(lp2629
g187
ag51
ag71
ag100
ag149
ag110
atp2630
Rp2631
sbsbag1281
ag0
(g31
g2
Ntp2632
Rp2633
(dp2634
g6
g0
(g7
g2
Ntp2635
Rp2636
(dp2637
g11
g0
(g12
g13
(lp2638
g71
ag149
ag384
ag384
ag149
ag216
ag149
atp2639
Rp2640
sbsbag1173
ag662
atp2641
Rp2642
sbsbag0
(g23
g2
Ntp2643
Rp2644
(dp2645
g6
g0
(g7
g2
Ntp2646
Rp2647
(dp2648
g11
g0
(g12
g13
(lp2649
g349
ag199
ag0
(g31
g2
Ntp2650
Rp2651
(dp2652
g6
g0
(g7
g2
Ntp2653
Rp2654
(dp2655
g11
g0
(g12
g13
(lp2656
g81
ag110
ag187
ag100
atp2657
Rp2658
sbsbag2066
ag1027
ag1218
ag1272
ag432
ag1426
atp2659
Rp2660
sbsbag2473
ag1581
atp2661
Rp2662
sbsbag0
(g15
g2
Ntp2663
Rp2664
(dp2665
g6
g0
(g7
g2
Ntp2666
Rp2667
(dp2668
g11
g0
(g12
g13
(lp2669
g0
(g23
g2
Ntp2670
Rp2671
(dp2672
g6
g0
(g7
g2
Ntp2673
Rp2674
(dp2675
g11
g0
(g12
g13
(lp2676
g1381
ag161
ag1236
ag1471
ag0
(g31
g2
Ntp2677
Rp2678
(dp2679
g6
g0
(g7
g2
Ntp2680
Rp2681
(dp2682
g11
g0
(g12
g13
(lp2683
g206
ag51
ag292
ag292
ag187
atp2684
Rp2685
sbsbag0
(g31
g2
Ntp2686
Rp2687
(dp2688
g6
g0
(g7
g2
Ntp2689
Rp2690
(dp2691
g11
g0
(g12
g13
(lp2692
g187
ag292
ag120
ag130
ag51
ag187
ag384
atp2693
Rp2694
sbsbag414
atp2695
Rp2696
sbsbag0
(g23
g2
Ntp2697
Rp2698
(dp2699
g6
g0
(g7
g2
Ntp2700
Rp2701
(dp2702
g11
g0
(g12
g13
(lp2703
g882
ag845
ag1408
ag1009
ag2417
ag1534
ag2687
atp2704
Rp2705
sbsbag0
(g23
g2
Ntp2706
Rp2707
(dp2708
g6
g0
(g7
g2
Ntp2709
Rp2710
(dp2711
g11
g0
(g12
g13
(lp2712
g680
ag487
ag496
ag910
ag662
atp2713
Rp2714
sbsbag0
(g23
g2
Ntp2715
Rp2716
(dp2717
g6
g0
(g7
g2
Ntp2718
Rp2719
(dp2720
g11
g0
(g12
g13
(lp2721
g1054
ag161
ag199
ag836
atp2722
Rp2723
sbsbag0
(g23
g2
Ntp2724
Rp2725
(dp2726
g6
g0
(g7
g2
Ntp2727
Rp2728
(dp2729
g11
g0
(g12
g13
(lp2730
g33
ag587
ag928
ag2507
ag161
ag505
ag0
(g31
g2
Ntp2731
Rp2732
(dp2733
g6
g0
(g7
g2
Ntp2734
Rp2735
(dp2736
g11
g0
(g12
g13
(lp2737
g206
ag120
ag61
ag120
atp2738
Rp2739
sbsbatp2740
Rp2741
sbsbag0
(g23
g2
Ntp2742
Rp2743
(dp2744
g6
g0
(g7
g2
Ntp2745
Rp2746
(dp2747
g11
g0
(g12
g13
(lp2748
g735
ag772
ag0
(g31
g2
Ntp2749
Rp2750
(dp2751
g6
g0
(g7
g2
Ntp2752
Rp2753
(dp2754
g11
g0
(g12
g13
(lp2755
g292
ag51
ag71
ag100
ag51
ag61
atp2756
Rp2757
sbsbag0
(g31
g2
Ntp2758
Rp2759
(dp2760
g6
g0
(g7
g2
Ntp2761
Rp2762
(dp2763
g11
g0
(g12
g13
(lp2764
g384
ag187
ag61
ag61
ag187
atp2765
Rp2766
sbsbag1254
ag1543
ag1236
atp2767
Rp2768
sbsbag0
(g23
g2
Ntp2769
Rp2770
(dp2771
g6
g0
(g7
g2
Ntp2772
Rp2773
(dp2774
g11
g0
(g12
g13
(lp2775
g1525
ag827
ag533
ag1137
atp2776
Rp2777
sbsbag0
(g23
g2
Ntp2778
Rp2779
(dp2780
g6
g0
(g7
g2
Ntp2781
Rp2782
(dp2783
g11
g0
(g12
g13
(lp2784
g1904
ag256
ag1877
ag0
(g31
g2
Ntp2785
Rp2786
(dp2787
g6
g0
(g7
g2
Ntp2788
Rp2789
(dp2790
g11
g0
(g12
g13
(lp2791
g384
ag81
ag100
ag51
ag61
atp2792
Rp2793
sbsbag2093
ag2624
ag662
ag0
(g31
g2
Ntp2794
Rp2795
(dp2796
g6
g0
(g7
g2
Ntp2797
Rp2798
(dp2799
g11
g0
(g12
g13
(lp2800
g71
ag149
ag206
ag61
ag81
ag130
ag51
ag187
ag100
atp2801
Rp2802
sbsbag0
(g31
g2
Ntp2803
Rp2804
(dp2805
g6
g0
(g7
g2
Ntp2806
Rp2807
(dp2808
g11
g0
(g12
g13
(lp2809
g110
ag861
ag149
ag206
ag71
ag51
ag61
atp2810
Rp2811
sbsbatp2812
Rp2813
sbsbag0
(g23
g2
Ntp2814
Rp2815
(dp2816
g6
g0
(g7
g2
Ntp2817
Rp2818
(dp2819
g11
g0
(g12
g13
(lp2820
g1381
ag772
ag1841
ag1462
ag1940
ag313
ag699
ag1705
ag304
ag2075
atp2821
Rp2822
sbsbag0
(g23
g2
Ntp2823
Rp2824
(dp2825
g6
g0
(g7
g2
Ntp2826
Rp2827
(dp2828
g11
g0
(g12
g13
(lp2829
g1381
ag1732
ag1336
ag1886
ag1363
ag542
ag1191
atp2830
Rp2831
sbsbag0
(g23
g2
Ntp2832
Rp2833
(dp2834
g6
g0
(g7
g2
Ntp2835
Rp2836
(dp2837
g11
g0
(g12
g13
(lp2838
g0
(g31
g2
Ntp2839
Rp2840
(dp2841
g6
g0
(g7
g2
Ntp2842
Rp2843
(dp2844
g11
g0
(g12
g13
(lp2845
g742
ag51
ag384
atp2846
Rp2847
sbsbag0
(g31
g2
Ntp2848
Rp2849
(dp2850
g6
g0
(g7
g2
Ntp2851
Rp2852
(dp2853
g11
g0
(g12
g13
(lp2854
g61
ag149
ag71
ag120
ag120
ag61
atp2855
Rp2856
sbsbag0
(g31
g2
Ntp2857
Rp2858
(dp2859
g6
g0
(g7
g2
Ntp2860
Rp2861
(dp2862
g11
g0
(g12
g13
(lp2863
g206
ag187
ag100
ag149
ag130
ag51
ag81
atp2864
Rp2865
sbsbag0
(g31
g2
Ntp2866
Rp2867
(dp2868
g6
g0
(g7
g2
Ntp2869
Rp2870
(dp2871
g11
g0
(g12
g13
(lp2872
g177
ag81
ag206
ag187
ag100
ag120
ag521
ag51
ag61
atp2873
Rp2874
sbsbag1209
ag0
(g31
g2
Ntp2875
Rp2876
(dp2877
g6
g0
(g7
g2
Ntp2878
Rp2879
(dp2880
g11
g0
(g12
g13
(lp2881
g384
ag187
ag263
ag206
ag120
ag61
atp2882
Rp2883
sbsbag0
(g31
g2
Ntp2884
Rp2885
(dp2886
g6
g0
(g7
g2
Ntp2887
Rp2888
(dp2889
g11
g0
(g12
g13
(lp2890
g216
ag120
ag61
atp2891
Rp2892
sbsbag0
(g31
g2
Ntp2893
Rp2894
(dp2895
g6
g0
(g7
g2
Ntp2896
Rp2897
(dp2898
g11
g0
(g12
g13
(lp2899
g177
ag187
ag110
ag100
ag51
ag110
ag120
ag81
ag206
ag100
atp2900
Rp2901
sbsbag0
(g31
g2
Ntp2902
Rp2903
(dp2904
g6
g0
(g7
g2
Ntp2905
Rp2906
(dp2907
g11
g0
(g12
g13
(lp2908
g384
ag149
ag206
ag100
ag81
ag61
atp2909
Rp2910
sbsbag0
(g31
g2
Ntp2911
Rp2912
(dp2913
g6
g0
(g7
g2
Ntp2914
Rp2915
(dp2916
g11
g0
(g12
g13
(lp2917
g206
ag187
ag61
ag71
ag81
ag100
ag51
ag110
atp2918
Rp2919
sbsbag0
(g31
g2
Ntp2920
Rp2921
(dp2922
g6
g0
(g7
g2
Ntp2923
Rp2924
(dp2925
g11
g0
(g12
g13
(lp2926
g110
ag120
ag216
ag120
ag71
ag51
ag292
ag51
ag61
atp2927
Rp2928
sbsbag0
(g31
g2
Ntp2929
Rp2930
(dp2931
g6
g0
(g7
g2
Ntp2932
Rp2933
(dp2934
g11
g0
(g12
g13
(lp2935
g384
ag51
ag61
atp2936
Rp2937
sbsbatp2938
Rp2939
sbsbag0
(g23
g2
Ntp2940
Rp2941
(dp2942
g6
g0
(g7
g2
Ntp2943
Rp2944
(dp2945
g11
g0
(g12
g13
(lp2946
g1381
ag1009
ag836
ag1036
atp2947
Rp2948
sbsbag0
(g23
g2
Ntp2949
Rp2950
(dp2951
g6
g0
(g7
g2
Ntp2952
Rp2953
(dp2954
g11
g0
(g12
g13
(lp2955
g33
ag313
ag1624
ag0
(g31
g2
Ntp2956
Rp2957
(dp2958
g6
g0
(g7
g2
Ntp2959
Rp2960
(dp2961
g11
g0
(g12
g13
(lp2962
g149
ag216
ag120
ag149
atp2963
Rp2964
sbsbag1209
ag2624
ag818
ag1786
ag1009
atp2965
Rp2966
sbsbatp2967
Rp2968
sbsbag0
(g15
g2
Ntp2969
Rp2970
(dp2971
g6
g0
(g7
g2
Ntp2972
Rp2973
(dp2974
g11
g0
(g12
g13
(lp2975
g0
(g23
g2
Ntp2976
Rp2977
(dp2978
g6
g0
(g7
g2
Ntp2979
Rp2980
(dp2981
g11
g0
(g12
g13
(lp2982
g0
(g31
g2
Ntp2983
Rp2984
(dp2985
g6
g0
(g7
g2
Ntp2986
Rp2987
(dp2988
g11
g0
(g12
g13
(lp2989
g0
(g39
g2
Ntp2990
Rp2991
(dp2992
g6
g0
(g7
g2
Ntp2993
Rp2994
(dp2995
g11
g0
(g12
g13
(lp2996
S'L'
p2997
atp2998
Rp2999
sbsbag149
ag110
ag81
ag384
atp3000
Rp3001
sbsbag377
ag578
ag487
ag1417
ag405
ag1750
ag910
atp3002
Rp3003
sbsbag0
(g23
g2
Ntp3004
Rp3005
(dp3006
g6
g0
(g7
g2
Ntp3007
Rp3008
(dp3009
g11
g0
(g12
g13
(lp3010
g349
ag1073
ag1281
ag901
ag662
ag0
(g31
g2
Ntp3011
Rp3012
(dp3013
g6
g0
(g7
g2
Ntp3014
Rp3015
(dp3016
g11
g0
(g12
g13
(lp3017
g273
ag81
ag61
ag100
ag120
ag521
ag51
ag292
ag51
ag384
atp3018
Rp3019
sbsbag0
(g31
g2
Ntp3020
Rp3021
(dp3022
g6
g0
(g7
g2
Ntp3023
Rp3024
(dp3025
g11
g0
(g12
g13
(lp3026
g177
ag292
ag187
ag71
ag81
ag110
ag187
ag100
atp3027
Rp3028
sbsbatp3029
Rp3030
sbsbag0
(g23
g2
Ntp3031
Rp3032
(dp3033
g6
g0
(g7
g2
Ntp3034
Rp3035
(dp3036
g11
g0
(g12
g13
(lp3037
g1525
ag142
ag1354
ag0
(g31
g2
Ntp3038
Rp3039
(dp3040
g6
g0
(g7
g2
Ntp3041
Rp3042
(dp3043
g11
g0
(g12
g13
(lp3044
g100
ag81
ag384
ag177
ag51
ag61
atp3045
Rp3046
sbsbag1462
ag2327
ag1678
ag0
(g31
g2
Ntp3047
Rp3048
(dp3049
g6
g0
(g7
g2
Ntp3050
Rp3051
(dp3052
g11
g0
(g12
g13
(lp3053
g71
ag149
ag206
ag263
ag51
ag81
atp3054
Rp3055
sbsbag1471
ag1263
atp3056
Rp3057
sbsbag0
(g23
g2
Ntp3058
Rp3059
(dp3060
g6
g0
(g7
g2
Ntp3061
Rp3062
(dp3063
g11
g0
(g12
g13
(lp3064
g1453
ag2192
ag1462
ag578
ag1209
ag1786
atp3065
Rp3066
sbsbag0
(g23
g2
Ntp3067
Rp3068
(dp3069
g6
g0
(g7
g2
Ntp3070
Rp3071
(dp3072
g11
g0
(g12
g13
(lp3073
g0
(g31
g2
Ntp3074
Rp3075
(dp3076
g6
g0
(g7
g2
Ntp3077
Rp3078
(dp3079
g11
g0
(g12
g13
(lp3080
g1306
ag81
ag206
ag81
ag187
ag206
atp3081
Rp3082
sbsbag1146
ag662
ag1345
ag505
ag2381
atp3083
Rp3084
sbsbag0
(g23
g2
Ntp3085
Rp3086
(dp3087
g6
g0
(g7
g2
Ntp3088
Rp3089
(dp3090
g11
g0
(g12
g13
(lp3091
g1904
ag161
ag717
ag2426
ag414
ag836
ag0
(g31
g2
Ntp3092
Rp3093
(dp3094
g6
g0
(g7
g2
Ntp3095
Rp3096
(dp3097
g11
g0
(g12
g13
(lp3098
g120
ag206
atp3099
Rp3100
sbsbag2516
ag142
atp3101
Rp3102
sbsbag0
(g23
g2
Ntp3103
Rp3104
(dp3105
g6
g0
(g7
g2
Ntp3106
Rp3107
(dp3108
g11
g0
(g12
g13
(lp3109
g1804
ag699
ag2417
ag1462
ag2030
ag1327
ag2408
ag0
(g31
g2
Ntp3110
Rp3111
(dp3112
g6
g0
(g7
g2
Ntp3113
Rp3114
(dp3115
g11
g0
(g12
g13
(lp3116
g120
ag384
ag177
ag81
ag110
ag216
ag120
ag81
ag100
atp3117
Rp3118
sbsbag717
ag2381
atp3119
Rp3120
sbsbag0
(g23
g2
Ntp3121
Rp3122
(dp3123
g6
g0
(g7
g2
Ntp3124
Rp3125
(dp3126
g11
g0
(g12
g13
(lp3127
g735
ag1705
ag982
ag587
ag1137
ag1091
ag2750
ag161
ag587
ag1236
atp3128
Rp3129
sbsbag2131
ag0
(g23
g2
Ntp3130
Rp3131
(dp3132
g6
g0
(g7
g2
Ntp3133
Rp3134
(dp3135
g11
g0
(g12
g13
(lp3136
g3075
ag2381
ag1543
ag0
(g31
g2
Ntp3137
Rp3138
(dp3139
g6
g0
(g7
g2
Ntp3140
Rp3141
(dp3142
g11
g0
(g12
g13
(lp3143
g110
ag120
ag61
ag51
ag61
atp3144
Rp3145
sbsbag772
ag3039
ag2678
ag414
ag1705
atp3146
Rp3147
sbsbag0
(g23
g2
Ntp3148
Rp3149
(dp3150
g6
g0
(g7
g2
Ntp3151
Rp3152
(dp3153
g11
g0
(g12
g13
(lp3154
g1381
ag1633
ag901
ag142
ag161
ag2804
atp3155
Rp3156
sbsbag0
(g23
g2
Ntp3157
Rp3158
(dp3159
g6
g0
(g7
g2
Ntp3160
Rp3161
(dp3162
g11
g0
(g12
g13
(lp3163
g1381
ag170
ag1534
ag2732
atp3164
Rp3165
sbsbag1581
ag0
(g23
g2
Ntp3166
Rp3167
(dp3168
g6
g0
(g7
g2
Ntp3169
Rp3170
(dp3171
g11
g0
(g12
g13
(lp3172
g2453
ag2174
ag2030
ag1615
ag1705
ag2687
ag533
ag2795
ag161
atp3173
Rp3174
sbsbag0
(g23
g2
Ntp3175
Rp3176
(dp3177
g6
g0
(g7
g2
Ntp3178
Rp3179
(dp3180
g11
g0
(g12
g13
(lp3181
g2453
ag2687
ag478
ag1462
ag1073
ag0
(g31
g2
Ntp3182
Rp3183
(dp3184
g6
g0
(g7
g2
Ntp3185
Rp3186
(dp3187
g11
g0
(g12
g13
(lp3188
g384
ag149
ag292
ag292
ag120
ag61
atp3189
Rp3190
sbsbatp3191
Rp3192
sbsbag0
(g23
g2
Ntp3193
Rp3194
(dp3195
g6
g0
(g7
g2
Ntp3196
Rp3197
(dp3198
g11
g0
(g12
g13
(lp3199
g237
ag1534
ag1082
ag578
ag1705
ag1345
atp3200
Rp3201
sbsbatp3202
Rp3203
sbsbag0
(g15
g2
Ntp3204
Rp3205
(dp3206
g6
g0
(g7
g2
Ntp3207
Rp3208
(dp3209
g11
g0
(g12
g13
(lp3210
g0
(g23
g2
Ntp3211
Rp3212
(dp3213
g6
g0
(g7
g2
Ntp3214
Rp3215
(dp3216
g11
g0
(g12
g13
(lp3217
g1768
ag2408
ag1841
ag304
ag2651
ag1254
ag699
atp3218
Rp3219
sbsbag0
(g23
g2
Ntp3220
Rp3221
(dp3222
g6
g0
(g7
g2
Ntp3223
Rp3224
(dp3225
g11
g0
(g12
g13
(lp3226
g973
ag0
(g31
g2
Ntp3227
Rp3228
(dp3229
g6
g0
(g7
g2
Ntp3230
Rp3231
(dp3232
g11
g0
(g12
g13
(lp3233
g216
ag120
ag71
ag100
ag51
ag384
atp3234
Rp3235
sbsbag1426
ag487
ag496
ag1561
ag0
(g31
g2
Ntp3236
Rp3237
(dp3238
g6
g0
(g7
g2
Ntp3239
Rp3240
(dp3241
g11
g0
(g12
g13
(lp3242
g71
ag149
ag206
ag263
ag51
ag81
atp3243
Rp3244
sbsbag569
ag478
ag3012
ag396
ag1209
ag1886
ag596
ag1841
ag587
ag982
atp3245
Rp3246
sbsbag2473
ag0
(g23
g2
Ntp3247
Rp3248
(dp3249
g6
g0
(g7
g2
Ntp3250
Rp3251
(dp3252
g11
g0
(g12
g13
(lp3253
g973
ag505
ag1281
ag1009
ag1137
ag542
ag2327
atp3254
Rp3255
sbsbag0
(g23
g2
Ntp3256
Rp3257
(dp3258
g6
g0
(g7
g2
Ntp3259
Rp3260
(dp3261
g11
g0
(g12
g13
(lp3262
g973
ag1009
ag1390
ag0
(g31
g2
Ntp3263
Rp3264
(dp3265
g6
g0
(g7
g2
Ntp3266
Rp3267
(dp3268
g11
g0
(g12
g13
(lp3269
g71
ag149
ag206
ag216
ag120
ag384
ag81
ag206
ag100
ag51
ag384
atp3270
Rp3271
sbsbag1823
ag836
ag0
(g31
g2
Ntp3272
Rp3273
(dp3274
g6
g0
(g7
g2
Ntp3275
Rp3276
(dp3277
g11
g0
(g12
g13
(lp3278
g51
ag100
atp3279
Rp3280
sbsbag2687
ag596
atp3281
Rp3282
sbsbag0
(g23
g2
Ntp3283
Rp3284
(dp3285
g6
g0
(g7
g2
Ntp3286
Rp3287
(dp3288
g11
g0
(g12
g13
(lp3289
g1804
ag772
ag1886
ag1281
atp3290
Rp3291
sbsbag0
(g23
g2
Ntp3292
Rp3293
(dp3294
g6
g0
(g7
g2
Ntp3295
Rp3296
(dp3297
g11
g0
(g12
g13
(lp3298
g349
ag1705
ag3039
ag285
ag1471
ag93
ag1336
atp3299
Rp3300
sbsbag0
(g23
g2
Ntp3301
Rp3302
(dp3303
g6
g0
(g7
g2
Ntp3304
Rp3305
(dp3306
g11
g0
(g12
g13
(lp3307
g1299
ag331
ag1940
ag836
atp3308
Rp3309
sbsbag0
(g23
g2
Ntp3310
Rp3311
(dp3312
g6
g0
(g7
g2
Ntp3313
Rp3314
(dp3315
g11
g0
(g12
g13
(lp3316
g1804
ag2750
ag0
(g31
g2
Ntp3317
Rp3318
(dp3319
g6
g0
(g7
g2
Ntp3320
Rp3321
(dp3322
g11
g0
(g12
g13
(lp3323
g521
ag292
ag187
ag206
ag216
ag120
ag100
atp3324
Rp3325
sbsbag1390
ag1462
ag1750
atp3326
Rp3327
sbsbag0
(g23
g2
Ntp3328
Rp3329
(dp3330
g6
g0
(g7
g2
Ntp3331
Rp3332
(dp3333
g11
g0
(g12
g13
(lp3334
g1904
ag845
ag533
ag1868
ag982
ag2192
ag1633
atp3335
Rp3336
sbsbag0
(g23
g2
Ntp3337
Rp3338
(dp3339
g6
g0
(g7
g2
Ntp3340
Rp3341
(dp3342
g11
g0
(g12
g13
(lp3343
g0
(g31
g2
Ntp3344
Rp3345
(dp3346
g6
g0
(g7
g2
Ntp3347
Rp3348
(dp3349
g11
g0
(g12
g13
(lp3350
g889
ag206
atp3351
Rp3352
sbsbag2363
ag1036
ag0
(g31
g2
Ntp3353
Rp3354
(dp3355
g6
g0
(g7
g2
Ntp3356
Rp3357
(dp3358
g11
g0
(g12
g13
(lp3359
g61
ag187
ag177
ag120
ag81
ag206
atp3360
Rp3361
sbsbag901
ag2363
ag836
ag1570
ag1009
atp3362
Rp3363
sbsbag0
(g23
g2
Ntp3364
Rp3365
(dp3366
g6
g0
(g7
g2
Ntp3367
Rp3368
(dp3369
g11
g0
(g12
g13
(lp3370
g349
ag2093
ag1137
ag2426
ag1624
ag1390
ag2057
ag2381
ag423
atp3371
Rp3372
sbsbatp3373
Rp3374
sbsbag0
(g15
g2
Ntp3375
Rp3376
(dp3377
g6
g0
(g7
g2
Ntp3378
Rp3379
(dp3380
g11
g0
(g12
g13
(lp3381
g0
(g23
g2
Ntp3382
Rp3383
(dp3384
g6
g0
(g7
g2
Ntp3385
Rp3386
(dp3387
g11
g0
(g12
g13
(lp3388
g1299
ag587
ag1994
ag396
ag304
ag1633
ag142
atp3389
Rp3390
sbsbag0
(g23
g2
Ntp3391
Rp3392
(dp3393
g6
g0
(g7
g2
Ntp3394
Rp3395
(dp3396
g11
g0
(g12
g13
(lp3397
g624
ag0
(g31
g2
Ntp3398
Rp3399
(dp3400
g6
g0
(g7
g2
Ntp3401
Rp3402
(dp3403
g11
g0
(g12
g13
(lp3404
g81
ag51
ag120
ag61
ag384
ag149
ag216
atp3405
Rp3406
sbsbag569
ag0
(g31
g2
Ntp3407
Rp3408
(dp3409
g6
g0
(g7
g2
Ntp3410
Rp3411
(dp3412
g11
g0
(g12
g13
(lp3413
g81
ag61
ag100
atp3414
Rp3415
sbsbag1705
ag1786
ag423
ag1543
ag827
atp3416
Rp3417
sbsbag0
(g23
g2
Ntp3418
Rp3419
(dp3420
g6
g0
(g7
g2
Ntp3421
Rp3422
(dp3423
g11
g0
(g12
g13
(lp3424
g1904
ag1750
ag1543
ag0
(g31
g2
Ntp3425
Rp3426
(dp3427
g6
g0
(g7
g2
Ntp3428
Rp3429
(dp3430
g11
g0
(g12
g13
(lp3431
g206
ag51
ag292
ag292
ag187
atp3432
Rp3433
sbsbag901
ag405
ag377
atp3434
Rp3435
sbsbag0
(g23
g2
Ntp3436
Rp3437
(dp3438
g6
g0
(g7
g2
Ntp3439
Rp3440
(dp3441
g11
g0
(g12
g13
(lp3442
g1453
ag772
ag2651
ag937
atp3443
Rp3444
sbsbag0
(g23
g2
Ntp3445
Rp3446
(dp3447
g6
g0
(g7
g2
Ntp3448
Rp3449
(dp3450
g11
g0
(g12
g13
(lp3451
g1525
ag3228
ag578
ag304
ag1732
ag2570
ag1218
ag322
ag1868
ag0
(g31
g2
Ntp3452
Rp3453
(dp3454
g6
g0
(g7
g2
Ntp3455
Rp3456
(dp3457
g11
g0
(g12
g13
(lp3458
g216
ag149
ag292
ag149
ag110
atp3459
Rp3460
sbsbag827
ag1254
ag1940
ag955
ag331
ag1363
atp3461
Rp3462
sbsbag0
(g23
g2
Ntp3463
Rp3464
(dp3465
g6
g0
(g7
g2
Ntp3466
Rp3467
(dp3468
g11
g0
(g12
g13
(lp3469
g237
ag2651
ag0
(g31
g2
Ntp3470
Rp3471
(dp3472
g6
g0
(g7
g2
Ntp3473
Rp3474
(dp3475
g11
g0
(g12
g13
(lp3476
g120
ag177
ag61
ag51
ag384
atp3477
Rp3478
sbsbag781
ag1462
ag763
ag0
(g31
g2
Ntp3479
Rp3480
(dp3481
g6
g0
(g7
g2
Ntp3482
Rp3483
(dp3484
g11
g0
(g12
g13
(lp3485
g206
ag81
ag71
atp3486
Rp3487
sbsbag1480
ag0
(g31
g2
Ntp3488
Rp3489
(dp3490
g6
g0
(g7
g2
Ntp3491
Rp3492
(dp3493
g11
g0
(g12
g13
(lp3494
g61
ag149
ag216
ag187
ag292
ag81
ag61
atp3495
Rp3496
sbsbag818
atp3497
Rp3498
sbsbag0
(g23
g2
Ntp3499
Rp3500
(dp3501
g6
g0
(g7
g2
Ntp3502
Rp3503
(dp3504
g11
g0
(g12
g13
(lp3505
g349
ag93
ag587
ag1336
ag2408
ag2795
atp3506
Rp3507
sbsbag0
(g23
g2
Ntp3508
Rp3509
(dp3510
g6
g0
(g7
g2
Ntp3511
Rp3512
(dp3513
g11
g0
(g12
g13
(lp3514
g1804
ag955
ag1615
ag3111
ag487
ag496
ag1263
ag0
(g31
g2
Ntp3515
Rp3516
(dp3517
g6
g0
(g7
g2
Ntp3518
Rp3519
(dp3520
g11
g0
(g12
g13
(lp3521
g187
ag292
ag120
ag130
ag51
ag81
ag100
atp3522
Rp3523
sbsbag1027
ag781
ag1741
atp3524
Rp3525
sbsbag0
(g23
g2
Ntp3526
Rp3527
(dp3528
g6
g0
(g7
g2
Ntp3529
Rp3530
(dp3531
g11
g0
(g12
g13
(lp3532
g1904
ag0
(g31
g2
Ntp3533
Rp3534
(dp3535
g6
g0
(g7
g2
Ntp3536
Rp3537
(dp3538
g11
g0
(g12
g13
(lp3539
g177
ag81
ag292
ag292
ag81
ag206
ag100
ag81
ag61
ag130
ag51
ag81
atp3540
Rp3541
sbsbag1036
ag331
ag1786
ag1327
ag2030
ag596
ag1027
ag1498
ag487
ag496
ag2750
ag982
ag1281
ag1009
ag955
atp3542
Rp3543
sbsbatp3544
Rp3545
sbsbag0
(g15
g2
Ntp3546
Rp3547
(dp3548
g6
g0
(g7
g2
Ntp3549
Rp3550
(dp3551
g11
g0
(g12
g13
(lp3552
g0
(g23
g2
Ntp3553
Rp3554
(dp3555
g6
g0
(g7
g2
Ntp3556
Rp3557
(dp3558
g11
g0
(g12
g13
(lp3559
g1588
ag854
ag955
ag1777
atp3560
Rp3561
sbsbag0
(g23
g2
Ntp3562
Rp3563
(dp3564
g6
g0
(g7
g2
Ntp3565
Rp3566
(dp3567
g11
g0
(g12
g13
(lp3568
g0
(g31
g2
Ntp3569
Rp3570
(dp3571
g6
g0
(g7
g2
Ntp3572
Rp3573
(dp3574
g11
g0
(g12
g13
(lp3575
g742
ag51
ag110
ag187
ag521
ag120
ag100
ag51
ag110
atp3576
Rp3577
sbsbag1705
ag2075
ag1462
ag1741
ag1624
ag1000
ag1462
ag827
ag1164
atp3578
Rp3579
sbsbag0
(g23
g2
Ntp3580
Rp3581
(dp3582
g6
g0
(g7
g2
Ntp3583
Rp3584
(dp3585
g11
g0
(g12
g13
(lp3586
g882
ag313
ag937
ag1462
ag836
ag469
ag2408
ag3012
ag1741
ag170
atp3587
Rp3588
sbsbag0
(g23
g2
Ntp3589
Rp3590
(dp3591
g6
g0
(g7
g2
Ntp3592
Rp3593
(dp3594
g11
g0
(g12
g13
(lp3595
g349
ag1480
ag818
ag1624
ag1633
ag2345
atp3596
Rp3597
sbsbag0
(g23
g2
Ntp3598
Rp3599
(dp3600
g6
g0
(g7
g2
Ntp3601
Rp3602
(dp3603
g11
g0
(g12
g13
(lp3604
g237
ag1009
ag763
ag1137
atp3605
Rp3606
sbsbag0
(g23
g2
Ntp3607
Rp3608
(dp3609
g6
g0
(g7
g2
Ntp3610
Rp3611
(dp3612
g11
g0
(g12
g13
(lp3613
g349
ag1254
ag754
ag763
ag1471
ag2363
atp3614
Rp3615
sbsbag0
(g23
g2
Ntp3616
Rp3617
(dp3618
g6
g0
(g7
g2
Ntp3619
Rp3620
(dp3621
g11
g0
(g12
g13
(lp3622
g680
ag1209
ag2417
ag377
atp3623
Rp3624
sbsbatp3625
Rp3626
sbsbag0
(g15
g2
Ntp3627
Rp3628
(dp3629
g6
g0
(g7
g2
Ntp3630
Rp3631
(dp3632
g11
g0
(g12
g13
(lp3633
g0
(g23
g2
Ntp3634
Rp3635
(dp3636
g6
g0
(g7
g2
Ntp3637
Rp3638
(dp3639
g11
g0
(g12
g13
(lp3640
g450
ag3039
ag1200
ag2408
ag93
ag3111
atp3641
Rp3642
sbsbag0
(g23
g2
Ntp3643
Rp3644
(dp3645
g6
g0
(g7
g2
Ntp3646
Rp3647
(dp3648
g11
g0
(g12
g13
(lp3649
g1588
ag1027
ag414
ag1426
ag587
ag3111
atp3650
Rp3651
sbsbag0
(g23
g2
Ntp3652
Rp3653
(dp3654
g6
g0
(g7
g2
Ntp3655
Rp3656
(dp3657
g11
g0
(g12
g13
(lp3658
g1525
ag2030
ag396
ag2381
ag487
ag496
ag2525
ag3273
ag2345
ag199
ag1218
atp3659
Rp3660
sbsbag2833
ag0
(g23
g2
Ntp3661
Rp3662
(dp3663
g6
g0
(g7
g2
Ntp3664
Rp3665
(dp3666
g11
g0
(g12
g13
(lp3667
g1381
ag405
ag1236
ag2408
ag699
ag708
atp3668
Rp3669
sbsbag0
(g23
g2
Ntp3670
Rp3671
(dp3672
g6
g0
(g7
g2
Ntp3673
Rp3674
(dp3675
g11
g0
(g12
g13
(lp3676
g799
ag2075
ag2084
ag93
ag1209
ag505
ag0
(g31
g2
Ntp3677
Rp3678
(dp3679
g6
g0
(g7
g2
Ntp3680
Rp3681
(dp3682
g11
g0
(g12
g13
(lp3683
g206
ag149
ag206
atp3684
Rp3685
sbsbag405
ag1471
ag1363
atp3686
Rp3687
sbsbag0
(g23
g2
Ntp3688
Rp3689
(dp3690
g6
g0
(g7
g2
Ntp3691
Rp3692
(dp3693
g11
g0
(g12
g13
(lp3694
g799
ag1009
ag322
ag0
(g31
g2
Ntp3695
Rp3696
(dp3697
g6
g0
(g7
g2
Ntp3698
Rp3699
(dp3700
g11
g0
(g12
g13
(lp3701
g61
ag71
ag81
ag292
ag81
ag110
ag120
ag61
ag130
ag51
ag81
atp3702
Rp3703
sbsbag1886
ag1281
ag1976
ag1868
ag569
atp3704
Rp3705
sbsbag0
(g23
g2
Ntp3706
Rp3707
(dp3708
g6
g0
(g7
g2
Ntp3709
Rp3710
(dp3711
g11
g0
(g12
g13
(lp3712
g33
ag1345
ag1191
ag2759
ag901
ag2516
ag2417
ag643
ag1750
atp3713
Rp3714
sbsbag0
(g23
g2
Ntp3715
Rp3716
(dp3717
g6
g0
(g7
g2
Ntp3718
Rp3719
(dp3720
g11
g0
(g12
g13
(lp3721
g799
ag0
(g31
g2
Ntp3722
Rp3723
(dp3724
g6
g0
(g7
g2
Ntp3725
Rp3726
(dp3727
g11
g0
(g12
g13
(lp3728
g384
ag187
ag292
ag81
ag61
ag51
ag187
ag216
ag187
atp3729
Rp3730
sbsbag2651
ag2345
ag3183
ag0
(g31
g2
Ntp3731
Rp3732
(dp3733
g6
g0
(g7
g2
Ntp3734
Rp3735
(dp3736
g11
g0
(g12
g13
(lp3737
g273
ag51
ag292
ag177
ag51
ag100
ag187
ag100
ag81
atp3738
Rp3739
sbsbag717
ag982
ag1082
ag0
(g31
g2
Ntp3740
Rp3741
(dp3742
g6
g0
(g7
g2
Ntp3743
Rp3744
(dp3745
g11
g0
(g12
g13
(lp3746
g603
ag51
ag61
ag100
ag149
atp3747
Rp3748
sbsbag2408
ag845
ag910
ag763
ag1705
ag1363
atp3749
Rp3750
sbsbag0
(g23
g2
Ntp3751
Rp3752
(dp3753
g6
g0
(g7
g2
Ntp3754
Rp3755
(dp3756
g11
g0
(g12
g13
(lp3757
g3345
ag1940
ag285
ag1868
ag587
ag377
ag0
(g31
g2
Ntp3758
Rp3759
(dp3760
g6
g0
(g7
g2
Ntp3761
Rp3762
(dp3763
g11
g0
(g12
g13
(lp3764
g120
ag216
atp3765
Rp3766
sbsbag1994
ag1000
ag910
atp3767
Rp3768
sbsbag0
(g23
g2
Ntp3769
Rp3770
(dp3771
g6
g0
(g7
g2
Ntp3772
Rp3773
(dp3774
g11
g0
(g12
g13
(lp3775
g3570
ag1705
ag2750
ag662
atp3776
Rp3777
sbsbag0
(g23
g2
Ntp3778
Rp3779
(dp3780
g6
g0
(g7
g2
Ntp3781
Rp3782
(dp3783
g11
g0
(g12
g13
(lp3784
g735
ag304
ag2804
ag3471
ag1009
ag1191
ag478
atp3785
Rp3786
sbsbag0
(g23
g2
Ntp3787
Rp3788
(dp3789
g6
g0
(g7
g2
Ntp3790
Rp3791
(dp3792
g11
g0
(g12
g13
(lp3793
g735
ag2192
ag1218
ag2624
ag1236
ag3399
ag0
(g31
g2
Ntp3794
Rp3795
(dp3796
g6
g0
(g7
g2
Ntp3797
Rp3798
(dp3799
g11
g0
(g12
g13
(lp3800
g521
ag120
ag521
ag81
ag206
ag216
ag51
ag384
atp3801
Rp3802
sbsbatp3803
Rp3804
sbsbag0
(g23
g2
Ntp3805
Rp3806
(dp3807
g6
g0
(g7
g2
Ntp3808
Rp3809
(dp3810
g11
g0
(g12
g13
(lp3811
g882
ag542
ag2327
ag982
atp3812
Rp3813
sbsbag0
(g23
g2
Ntp3814
Rp3815
(dp3816
g6
g0
(g7
g2
Ntp3817
Rp3818
(dp3819
g11
g0
(g12
g13
(lp3820
g799
ag1561
ag1036
ag2408
ag1408
ag0
(g31
g2
Ntp3821
Rp3822
(dp3823
g6
g0
(g7
g2
Ntp3824
Rp3825
(dp3826
g11
g0
(g12
g13
(lp3827
g521
ag120
ag521
ag81
ag206
ag216
ag51
ag384
atp3828
Rp3829
sbsbag2408
ag2804
ag1714
ag405
atp3830
Rp3831
sbsbag0
(g23
g2
Ntp3832
Rp3833
(dp3834
g6
g0
(g7
g2
Ntp3835
Rp3836
(dp3837
g11
g0
(g12
g13
(lp3838
g1588
ag3021
ag542
ag955
ag901
ag2624
atp3839
Rp3840
sbsbatp3841
Rp3842
sbsbag0
(g15
g2
Ntp3843
Rp3844
(dp3845
g6
g0
(g7
g2
Ntp3846
Rp3847
(dp3848
g11
g0
(g12
g13
(lp3849
g0
(g23
g2
Ntp3850
Rp3851
(dp3852
g6
g0
(g7
g2
Ntp3853
Rp3854
(dp3855
g11
g0
(g12
g13
(lp3856
g1054
ag0
(g31
g2
Ntp3857
Rp3858
(dp3859
g6
g0
(g7
g2
Ntp3860
Rp3861
(dp3862
g11
g0
(g12
g13
(lp3863
g177
ag149
ag100
ag81
ag206
ag100
ag120
atp3864
Rp3865
sbsbatp3866
Rp3867
sbsbag0
(g23
g2
Ntp3868
Rp3869
(dp3870
g6
g0
(g7
g2
Ntp3871
Rp3872
(dp3873
g11
g0
(g12
g13
(lp3874
g2453
ag161
ag569
ag1471
ag1940
ag1480
ag2363
ag1471
ag772
ag478
atp3875
Rp3876
sbsbag0
(g23
g2
Ntp3877
Rp3878
(dp3879
g6
g0
(g7
g2
Ntp3880
Rp3881
(dp3882
g11
g0
(g12
g13
(lp3883
g624
ag161
ag2678
ag0
(g31
g2
Ntp3884
Rp3885
(dp3886
g6
g0
(g7
g2
Ntp3887
Rp3888
(dp3889
g11
g0
(g12
g13
(lp3890
g861
ag81
ag206
ag216
ag110
ag81
ag110
ag120
ag100
atp3891
Rp3892
sbsbag1696
ag1263
ag0
(g31
g2
Ntp3893
Rp3894
(dp3895
g6
g0
(g7
g2
Ntp3896
Rp3897
(dp3898
g11
g0
(g12
g13
(lp3899
g187
ag100
atp3900
Rp3901
sbsbag1624
ag937
atp3902
Rp3903
sbsbag0
(g23
g2
Ntp3904
Rp3905
(dp3906
g6
g0
(g7
g2
Ntp3907
Rp3908
(dp3909
g11
g0
(g12
g13
(lp3910
g3570
ag1191
ag487
ag496
ag818
ag161
ag3021
atp3911
Rp3912
sbsbag0
(g23
g2
Ntp3913
Rp3914
(dp3915
g6
g0
(g7
g2
Ntp3916
Rp3917
(dp3918
g11
g0
(g12
g13
(lp3919
g799
ag1471
ag1263
ag199
ag578
ag854
ag1091
atp3920
Rp3921
sbsbag0
(g23
g2
Ntp3922
Rp3923
(dp3924
g6
g0
(g7
g2
Ntp3925
Rp3926
(dp3927
g11
g0
(g12
g13
(lp3928
g1588
ag1209
ag0
(g31
g2
Ntp3929
Rp3930
(dp3931
g6
g0
(g7
g2
Ntp3932
Rp3933
(dp3934
g11
g0
(g12
g13
(lp3935
g51
ag292
ag292
ag187
ag384
ag71
ag149
ag110
ag177
ag81
ag110
atp3936
Rp3937
sbsbag478
atp3938
Rp3939
sbsbag0
(g23
g2
Ntp3940
Rp3941
(dp3942
g6
g0
(g7
g2
Ntp3943
Rp3944
(dp3945
g11
g0
(g12
g13
(lp3946
g1381
ag368
ag578
ag487
ag496
ag432
ag3048
atp3947
Rp3948
sbsbag0
(g23
g2
Ntp3949
Rp3950
(dp3951
g6
g0
(g7
g2
Ntp3952
Rp3953
(dp3954
g11
g0
(g12
g13
(lp3955
g624
ag587
ag3930
ag0
(g31
g2
Ntp3956
Rp3957
(dp3958
g6
g0
(g7
g2
Ntp3959
Rp3960
(dp3961
g11
g0
(g12
g13
(lp3962
g187
ag206
ag100
ag81
atp3963
Rp3964
sbsbag901
ag1750
ag569
atp3965
Rp3966
sbsbag0
(g23
g2
Ntp3967
Rp3968
(dp3969
g6
g0
(g7
g2
Ntp3970
Rp3971
(dp3972
g11
g0
(g12
g13
(lp3973
g1299
ag1786
ag1741
ag2804
ag596
ag0
(g31
g2
Ntp3974
Rp3975
(dp3976
g6
g0
(g7
g2
Ntp3977
Rp3978
(dp3979
g11
g0
(g12
g13
(lp3980
g61
ag149
ag216
ag187
ag292
ag81
ag61
atp3981
Rp3982
sbsbag901
ag1480
ag2075
ag1082
atp3983
Rp3984
sbsbag0
(g23
g2
Ntp3985
Rp3986
(dp3987
g6
g0
(g7
g2
Ntp3988
Rp3989
(dp3990
g11
g0
(g12
g13
(lp3991
g735
ag0
(g31
g2
Ntp3992
Rp3993
(dp3994
g6
g0
(g7
g2
Ntp3995
Rp3996
(dp3997
g11
g0
(g12
g13
(lp3998
g861
ag81
ag206
ag216
ag110
ag81
ag110
ag120
ag100
atp3999
Rp4000
sbsbag2651
ag487
ag496
ag1363
ag928
ag3111
ag772
ag901
ag1426
atp4001
Rp4002
sbsbag0
(g23
g2
Ntp4003
Rp4004
(dp4005
g6
g0
(g7
g2
Ntp4006
Rp4007
(dp4008
g11
g0
(g12
g13
(lp4009
g1588
ag3795
ag1741
ag368
ag1200
ag1732
ag405
atp4010
Rp4011
sbsbatp4012
Rp4013
sbsbag0
(g15
g2
Ntp4014
Rp4015
(dp4016
g6
g0
(g7
g2
Ntp4017
Rp4018
(dp4019
g11
g0
(g12
g13
(lp4020
g0
(g23
g2
Ntp4021
Rp4022
(dp4023
g6
g0
(g7
g2
Ntp4024
Rp4025
(dp4026
g11
g0
(g12
g13
(lp4027
g1453
ag1877
ag818
ag2759
ag1705
ag1994
ag1236
ag3183
ag901
atp4028
Rp4029
sbsbag0
(g23
g2
Ntp4030
Rp4031
(dp4032
g6
g0
(g7
g2
Ntp4033
Rp4034
(dp4035
g11
g0
(g12
g13
(lp4036
g3345
ag781
ag901
ag717
ag331
ag3930
atp4037
Rp4038
sbsbag0
(g23
g2
Ntp4039
Rp4040
(dp4041
g6
g0
(g7
g2
Ntp4042
Rp4043
(dp4044
g11
g0
(g12
g13
(lp4045
g349
ag322
ag3741
ag3795
ag1471
ag1336
ag0
(g31
g2
Ntp4046
Rp4047
(dp4048
g6
g0
(g7
g2
Ntp4049
Rp4050
(dp4051
g11
g0
(g12
g13
(lp4052
g130
ag51
ag120
ag61
atp4053
Rp4054
sbsbag1082
ag2327
ag377
atp4055
Rp4056
sbsbag0
(g23
g2
Ntp4057
Rp4058
(dp4059
g6
g0
(g7
g2
Ntp4060
Rp4061
(dp4062
g11
g0
(g12
g13
(lp4063
g3075
ag1173
ag578
ag331
ag699
ag432
atp4064
Rp4065
sbsbag0
(g23
g2
Ntp4066
Rp4067
(dp4068
g6
g0
(g7
g2
Ntp4069
Rp4070
(dp4071
g11
g0
(g12
g13
(lp4072
g882
ag2093
ag708
ag937
atp4073
Rp4074
sbsbag0
(g23
g2
Ntp4075
Rp4076
(dp4077
g6
g0
(g7
g2
Ntp4078
Rp4079
(dp4080
g11
g0
(g12
g13
(lp4081
g3570
ag432
ag1750
ag0
(g31
g2
Ntp4082
Rp4083
(dp4084
g6
g0
(g7
g2
Ntp4085
Rp4086
(dp4087
g11
g0
(g12
g13
(lp4088
g130
ag51
ag187
ag384
atp4089
Rp4090
sbsbag2093
ag1561
ag1218
ag1000
ag2408
atp4091
Rp4092
sbsbag0
(g23
g2
Ntp4093
Rp4094
(dp4095
g6
g0
(g7
g2
Ntp4096
Rp4097
(dp4098
g11
g0
(g12
g13
(lp4099
g1299
ag2651
ag2327
atp4100
Rp4101
sbsbag0
(g23
g2
Ntp4102
Rp4103
(dp4104
g6
g0
(g7
g2
Ntp4105
Rp4106
(dp4107
g11
g0
(g12
g13
(lp4108
g349
ag901
ag1561
ag0
(g31
g2
Ntp4109
Rp4110
(dp4111
g6
g0
(g7
g2
Ntp4112
Rp4113
(dp4114
g11
g0
(g12
g13
(lp4115
g216
ag51
ag120
atp4116
Rp4117
sbsbag1462
ag1534
ag955
atp4118
Rp4119
sbsbag0
(g23
g2
Ntp4120
Rp4121
(dp4122
g6
g0
(g7
g2
Ntp4123
Rp4124
(dp4125
g11
g0
(g12
g13
(lp4126
g735
ag1254
ag423
ag1009
ag377
ag0
(g31
g2
Ntp4127
Rp4128
(dp4129
g6
g0
(g7
g2
Ntp4130
Rp4131
(dp4132
g11
g0
(g12
g13
(lp4133
g650
ag81
ag110
ag384
ag81
ag206
ag100
ag51
ag384
atp4134
Rp4135
sbsbag772
ag1082
ag569
ag3012
atp4136
Rp4137
sbsbatp4138
Rp4139
sbsbag0
(g15
g2
Ntp4140
Rp4141
(dp4142
g6
g0
(g7
g2
Ntp4143
Rp4144
(dp4145
g11
g0
(g12
g13
(lp4146
g0
(g23
g2
Ntp4147
Rp4148
(dp4149
g6
g0
(g7
g2
Ntp4150
Rp4151
(dp4152
g11
g0
(g12
g13
(lp4153
g3570
ag3318
ag1009
ag2732
ag1009
ag1823
atp4154
Rp4155
sbsbag0
(g23
g2
Ntp4156
Rp4157
(dp4158
g6
g0
(g7
g2
Ntp4159
Rp4160
(dp4161
g11
g0
(g12
g13
(lp4162
g1299
ag1471
ag414
ag1363
atp4163
Rp4164
sbsbag0
(g23
g2
Ntp4165
Rp4166
(dp4167
g6
g0
(g7
g2
Ntp4168
Rp4169
(dp4170
g11
g0
(g12
g13
(lp4171
g735
ag2750
ag3318
ag396
ag827
ag708
ag1336
ag1624
ag1209
atp4172
Rp4173
sbsbag0
(g23
g2
Ntp4174
Rp4175
(dp4176
g6
g0
(g7
g2
Ntp4177
Rp4178
(dp4179
g11
g0
(g12
g13
(lp4180
g735
ag1561
ag1408
ag1209
ag1281
ag0
(g31
g2
Ntp4181
Rp4182
(dp4183
g6
g0
(g7
g2
Ntp4184
Rp4185
(dp4186
g11
g0
(g12
g13
(lp4187
g292
ag149
ag521
ag149
ag110
ag100
ag120
ag61
atp4188
Rp4189
sbsbag772
ag3399
ag1336
ag3021
atp4190
Rp4191
sbsbag0
(g23
g2
Ntp4192
Rp4193
(dp4194
g6
g0
(g7
g2
Ntp4195
Rp4196
(dp4197
g11
g0
(g12
g13
(lp4198
g3345
ag1886
ag1994
ag845
atp4199
Rp4200
sbsbag0
(g23
g2
Ntp4201
Rp4202
(dp4203
g6
g0
(g7
g2
Ntp4204
Rp4205
(dp4206
g11
g0
(g12
g13
(lp4207
g1859
ag322
ag396
ag1191
ag901
ag1390
ag3093
ag313
ag170
ag1426
atp4208
Rp4209
sbsbag0
(g23
g2
Ntp4210
Rp4211
(dp4212
g6
g0
(g7
g2
Ntp4213
Rp4214
(dp4215
g11
g0
(g12
g13
(lp4216
g1588
ag2750
ag928
ag1877
atp4217
Rp4218
sbsbag0
(g23
g2
Ntp4219
Rp4220
(dp4221
g6
g0
(g7
g2
Ntp4222
Rp4223
(dp4224
g11
g0
(g12
g13
(lp4225
g882
ag818
ag285
ag1534
ag1705
ag2030
ag1018
ag3399
ag1254
ag910
atp4226
Rp4227
sbsbag0
(g23
g2
Ntp4228
Rp4229
(dp4230
g6
g0
(g7
g2
Ntp4231
Rp4232
(dp4233
g11
g0
(g12
g13
(lp4234
g624
ag901
ag928
ag3471
ag2804
ag3111
ag578
atp4235
Rp4236
sbsbag0
(g23
g2
Ntp4237
Rp4238
(dp4239
g6
g0
(g7
g2
Ntp4240
Rp4241
(dp4242
g11
g0
(g12
g13
(lp4243
g1453
ag1009
ag569
ag487
ag496
ag322
ag1543
ag1173
atp4244
Rp4245
sbsbag0
(g23
g2
Ntp4246
Rp4247
(dp4248
g6
g0
(g7
g2
Ntp4249
Rp4250
(dp4251
g11
g0
(g12
g13
(lp4252
g0
(g31
g2
Ntp4253
Rp4254
(dp4255
g6
g0
(g7
g2
Ntp4256
Rp4257
(dp4258
g11
g0
(g12
g13
(lp4259
g356
ag51
ag120
ag61
atp4260
Rp4261
sbsbag1191
ag1696
ag551
ag560
ag1543
ag717
ag2750
ag2408
atp4262
Rp4263
sbsbag0
(g23
g2
Ntp4264
Rp4265
(dp4266
g6
g0
(g7
g2
Ntp4267
Rp4268
(dp4269
g11
g0
(g12
g13
(lp4270
g2453
ag2750
ag533
ag331
ag1200
ag0
(g31
g2
Ntp4271
Rp4272
(dp4273
g6
g0
(g7
g2
Ntp4274
Rp4275
(dp4276
g11
g0
(g12
g13
(lp4277
g650
ag110
ag120
ag206
ag263
ag120
ag292
ag292
ag187
atp4278
Rp4279
sbsbag487
ag496
ag845
ag937
ag1570
atp4280
Rp4281
sbsbag0
(g23
g2
Ntp4282
Rp4283
(dp4284
g6
g0
(g7
g2
Ntp4285
Rp4286
(dp4287
g11
g0
(g12
g13
(lp4288
g450
ag2678
ag0
(g31
g2
Ntp4289
Rp4290
(dp4291
g6
g0
(g7
g2
Ntp4292
Rp4293
(dp4294
g11
g0
(g12
g13
(lp4295
g273
ag81
ag292
ag120
ag100
atp4296
Rp4297
sbsbag1633
ag1471
ag423
ag1678
ag1750
ag2624
ag1036
atp4298
Rp4299
sbsbag0
(g23
g2
Ntp4300
Rp4301
(dp4302
g6
g0
(g7
g2
Ntp4303
Rp4304
(dp4305
g11
g0
(g12
g13
(lp4306
g624
ag763
ag3138
ag854
ag827
ag982
ag3678
ag1173
ag414
ag1777
atp4307
Rp4308
sbsbag0
(g23
g2
Ntp4309
Rp4310
(dp4311
g6
g0
(g7
g2
Ntp4312
Rp4313
(dp4314
g11
g0
(g12
g13
(lp4315
g349
ag1036
ag0
(g31
g2
Ntp4316
Rp4317
(dp4318
g6
g0
(g7
g2
Ntp4319
Rp4320
(dp4321
g11
g0
(g12
g13
(lp4322
g61
ag81
ag384
atp4323
Rp4324
sbsbag3111
ag1009
ag1732
ag1018
ag256
ag1705
ag1426
atp4325
Rp4326
sbsbatp4327
Rp4328
sbsbag0
(g15
g2
Ntp4329
Rp4330
(dp4331
g6
g0
(g7
g2
Ntp4332
Rp4333
(dp4334
g11
g0
(g12
g13
(lp4335
g0
(g23
g2
Ntp4336
Rp4337
(dp4338
g6
g0
(g7
g2
Ntp4339
Rp4340
(dp4341
g11
g0
(g12
g13
(lp4342
g973
ag1868
ag2030
ag2408
ag578
ag1327
ag901
ag3111
ag1036
ag781
atp4343
Rp4344
sbsbag0
(g23
g2
Ntp4345
Rp4346
(dp4347
g6
g0
(g7
g2
Ntp4348
Rp4349
(dp4350
g11
g0
(g12
g13
(lp4351
g2399
ag487
ag496
ag533
ag2093
ag1741
ag199
ag3399
atp4352
Rp4353
sbsbag0
(g23
g2
Ntp4354
Rp4355
(dp4356
g6
g0
(g7
g2
Ntp4357
Rp4358
(dp4359
g11
g0
(g12
g13
(lp4360
g3345
ag199
ag313
ag2651
ag1209
ag199
atp4361
Rp4362
sbsbag0
(g23
g2
Ntp4363
Rp4364
(dp4365
g6
g0
(g7
g2
Ntp4366
Rp4367
(dp4368
g11
g0
(g12
g13
(lp4369
g1453
ag4128
ag662
ag331
ag3039
ag1399
ag1036
ag1408
ag1669
ag3453
ag2093
ag3795
ag2651
ag1426
ag560
ag533
atp4370
Rp4371
sbsbag0
(g23
g2
Ntp4372
Rp4373
(dp4374
g6
g0
(g7
g2
Ntp4375
Rp4376
(dp4377
g11
g0
(g12
g13
(lp4378
g1859
ag2174
ag161
ag955
ag1705
ag3111
atp4379
Rp4380
sbsbag0
(g23
g2
Ntp4381
Rp4382
(dp4383
g6
g0
(g7
g2
Ntp4384
Rp4385
(dp4386
g11
g0
(g12
g13
(lp4387
g3345
ag432
ag2651
ag0
(g31
g2
Ntp4388
Rp4389
(dp4390
g6
g0
(g7
g2
Ntp4391
Rp4392
(dp4393
g11
g0
(g12
g13
(lp4394
g187
ag110
ag71
ag51
atp4395
Rp4396
sbsbag901
ag1073
ag1426
ag3489
ag304
atp4397
Rp4398
sbsbag0
(g23
g2
Ntp4399
Rp4400
(dp4401
g6
g0
(g7
g2
Ntp4402
Rp4403
(dp4404
g11
g0
(g12
g13
(lp4405
g882
ag93
ag423
ag304
ag322
ag0
(g31
g2
Ntp4406
Rp4407
(dp4408
g6
g0
(g7
g2
Ntp4409
Rp4410
(dp4411
g11
g0
(g12
g13
(lp4412
g51
ag292
ag292
ag187
ag384
ag71
ag149
ag110
ag177
ag81
ag110
atp4413
Rp4414
sbsbag854
ag2363
ag910
ag643
atp4415
Rp4416
sbsbag0
(g23
g2
Ntp4417
Rp4418
(dp4419
g6
g0
(g7
g2
Ntp4420
Rp4421
(dp4422
g11
g0
(g12
g13
(lp4423
g349
ag161
ag2417
ag560
ag1841
ag3111
ag1561
atp4424
Rp4425
sbsbag0
(g23
g2
Ntp4426
Rp4427
(dp4428
g6
g0
(g7
g2
Ntp4429
Rp4430
(dp4431
g11
g0
(g12
g13
(lp4432
g1453
ag2093
ag1994
ag1137
atp4433
Rp4434
sbsbag0
(g23
g2
Ntp4435
Rp4436
(dp4437
g6
g0
(g7
g2
Ntp4438
Rp4439
(dp4440
g11
g0
(g12
g13
(lp4441
g735
ag1200
ag4110
ag3039
ag587
ag1218
ag3480
ag3021
ag1868
ag1363
atp4442
Rp4443
sbsbag0
(g23
g2
Ntp4444
Rp4445
(dp4446
g6
g0
(g7
g2
Ntp4447
Rp4448
(dp4449
g11
g0
(g12
g13
(lp4450
g1299
ag827
ag3039
ag1940
atp4451
Rp4452
sbsbag0
(g23
g2
Ntp4453
Rp4454
(dp4455
g6
g0
(g7
g2
Ntp4456
Rp4457
(dp4458
g11
g0
(g12
g13
(lp4459
g3075
ag2804
ag542
ag2003
ag560
ag313
ag1281
ag1345
ag161
atp4460
Rp4461
sbsbag0
(g23
g2
Ntp4462
Rp4463
(dp4464
g6
g0
(g7
g2
Ntp4465
Rp4466
(dp4467
g11
g0
(g12
g13
(lp4468
g3345
ag754
ag1082
ag1281
ag331
ag854
atp4469
Rp4470
sbsbatp4471
Rp4472
sbsbag0
(g15
g2
Ntp4473
Rp4474
(dp4475
g6
g0
(g7
g2
Ntp4476
Rp4477
(dp4478
g11
g0
(g12
g13
(lp4479
g0
(g23
g2
Ntp4480
Rp4481
(dp4482
g6
g0
(g7
g2
Ntp4483
Rp4484
(dp4485
g11
g0
(g12
g13
(lp4486
g349
ag2570
ag1036
ag487
ag496
ag1732
ag0
(g31
g2
Ntp4487
Rp4488
(dp4489
g6
g0
(g7
g2
Ntp4490
Rp4491
(dp4492
g11
g0
(g12
g13
(lp4493
g177
ag149
ag110
ag100
ag187
atp4494
Rp4495
sbsbag2417
ag142
ag3183
ag2084
ag643
ag2804
ag1408
ag1218
ag1462
ag1263
atp4496
Rp4497
sbsbag0
(g23
g2
Ntp4498
Rp4499
(dp4500
g6
g0
(g7
g2
Ntp4501
Rp4502
(dp4503
g11
g0
(g12
g13
(lp4504
g349
ag854
ag2525
ag0
(g31
g2
Ntp4505
Rp4506
(dp4507
g6
g0
(g7
g2
Ntp4508
Rp4509
(dp4510
g11
g0
(g12
g13
(lp4511
g292
ag81
ag149
atp4512
Rp4513
sbsbag772
ag170
ag1777
ag1000
ag587
atp4514
Rp4515
sbsbag0
(g23
g2
Ntp4516
Rp4517
(dp4518
g6
g0
(g7
g2
Ntp4519
Rp4520
(dp4521
g11
g0
(g12
g13
(lp4522
g1859
ag2678
ag4317
ag1750
ag1009
ag377
ag1272
ag1786
ag3012
ag763
atp4523
Rp4524
sbsbag0
(g23
g2
Ntp4525
Rp4526
(dp4527
g6
g0
(g7
g2
Ntp4528
Rp4529
(dp4530
g11
g0
(g12
g13
(lp4531
g799
ag2093
ag1633
ag1036
atp4532
Rp4533
sbsbag0
(g23
g2
Ntp4534
Rp4535
(dp4536
g6
g0
(g7
g2
Ntp4537
Rp4538
(dp4539
g11
g0
(g12
g13
(lp4540
g1453
ag587
ag2192
ag0
(g31
g2
Ntp4541
Rp4542
(dp4543
g6
g0
(g7
g2
Ntp4544
Rp4545
(dp4546
g11
g0
(g12
g13
(lp4547
g206
ag120
ag61
ag292
atp4548
Rp4549
sbsbag901
ag405
ag662
atp4550
Rp4551
sbsbag0
(g23
g2
Ntp4552
Rp4553
(dp4554
g6
g0
(g7
g2
Ntp4555
Rp4556
(dp4557
g11
g0
(g12
g13
(lp4558
g1904
ag901
ag2174
ag1741
atp4559
Rp4560
sbsbag0
(g23
g2
Ntp4561
Rp4562
(dp4563
g6
g0
(g7
g2
Ntp4564
Rp4565
(dp4566
g11
g0
(g12
g13
(lp4567
g680
ag1786
ag1390
ag1462
ag910
ag2750
ag3795
atp4568
Rp4569
sbsbag0
(g23
g2
Ntp4570
Rp4571
(dp4572
g6
g0
(g7
g2
Ntp4573
Rp4574
(dp4575
g11
g0
(g12
g13
(lp4576
g450
ag3183
ag2624
ag313
atp4577
Rp4578
sbsbatp4579
Rp4580
sbsbag0
(g15
g2
Ntp4581
Rp4582
(dp4583
g6
g0
(g7
g2
Ntp4584
Rp4585
(dp4586
g11
g0
(g12
g13
(lp4587
g0
(g23
g2
Ntp4588
Rp4589
(dp4590
g6
g0
(g7
g2
Ntp4591
Rp4592
(dp4593
g11
g0
(g12
g13
(lp4594
g1299
ag0
(g31
g2
Ntp4595
Rp4596
(dp4597
g6
g0
(g7
g2
Ntp4598
Rp4599
(dp4600
g11
g0
(g12
g13
(lp4601
g100
ag81
ag384
ag177
ag149
ag110
atp4602
Rp4603
sbsbag1336
ag161
ag170
ag3732
ag937
ag1200
ag3183
ag1498
ag1209
ag928
ag1336
ag423
ag1471
ag1200
atp4604
Rp4605
sbsbag0
(g23
g2
Ntp4606
Rp4607
(dp4608
g6
g0
(g7
g2
Ntp4609
Rp4610
(dp4611
g11
g0
(g12
g13
(lp4612
g1109
ag2093
ag1408
ag2417
atp4613
Rp4614
sbsbag0
(g23
g2
Ntp4615
Rp4616
(dp4617
g6
g0
(g7
g2
Ntp4618
Rp4619
(dp4620
g11
g0
(g12
g13
(lp4621
g349
ag1345
ag643
ag991
ag827
ag1633
ag1714
atp4622
Rp4623
sbsbag0
(g23
g2
Ntp4624
Rp4625
(dp4626
g6
g0
(g7
g2
Ntp4627
Rp4628
(dp4629
g11
g0
(g12
g13
(lp4630
g349
ag1570
ag1480
ag93
atp4631
Rp4632
sbsbag0
(g23
g2
Ntp4633
Rp4634
(dp4635
g6
g0
(g7
g2
Ntp4636
Rp4637
(dp4638
g11
g0
(g12
g13
(lp4639
g1859
ag3930
ag596
ag3354
ag1705
ag1823
ag1164
ag1543
ag560
atp4640
Rp4641
sbsbag0
(g23
g2
Ntp4642
Rp4643
(dp4644
g6
g0
(g7
g2
Ntp4645
Rp4646
(dp4647
g11
g0
(g12
g13
(lp4648
g1588
ag3048
ag587
ag1236
ag2408
ag1696
atp4649
Rp4650
sbsbag0
(g23
g2
Ntp4651
Rp4652
(dp4653
g6
g0
(g7
g2
Ntp4654
Rp4655
(dp4656
g11
g0
(g12
g13
(lp4657
g735
ag901
ag1741
ag587
ag2417
ag2624
ag3399
ag1462
ag587
ag763
atp4658
Rp4659
sbsbatp4660
Rp4661
sbsbag0
(g15
g2
Ntp4662
Rp4663
(dp4664
g6
g0
(g7
g2
Ntp4665
Rp4666
(dp4667
g11
g0
(g12
g13
(lp4668
g2131
ag0
(g23
g2
Ntp4669
Rp4670
(dp4671
g6
g0
(g7
g2
Ntp4672
Rp4673
(dp4674
g11
g0
(g12
g13
(lp4675
g1299
ag1091
ag708
ag0
(g31
g2
Ntp4676
Rp4677
(dp4678
g6
g0
(g7
g2
Ntp4679
Rp4680
(dp4681
g11
g0
(g12
g13
(lp4682
g81
ag292
ag120
ag100
atp4683
Rp4684
sbsbag772
ag928
ag1263
ag699
ag901
atp4685
Rp4686
sbsbag0
(g23
g2
Ntp4687
Rp4688
(dp4689
g6
g0
(g7
g2
Ntp4690
Rp4691
(dp4692
g11
g0
(g12
g13
(lp4693
g3345
ag1345
ag1426
ag587
ag478
ag0
(g31
g2
Ntp4694
Rp4695
(dp4696
g6
g0
(g7
g2
Ntp4697
Rp4698
(dp4699
g11
g0
(g12
g13
(lp4700
g273
ag81
ag861
ag120
ag71
ag51
ag292
ag187
atp4701
Rp4702
sbsbag487
ag496
ag1082
ag818
ag1994
atp4703
Rp4704
sbsbag0
(g23
g2
Ntp4705
Rp4706
(dp4707
g6
g0
(g7
g2
Ntp4708
Rp4709
(dp4710
g11
g0
(g12
g13
(lp4711
g3345
ag827
ag955
ag1462
ag2651
ag1534
ag845
atp4712
Rp4713
sbsbag0
(g23
g2
Ntp4714
Rp4715
(dp4716
g6
g0
(g7
g2
Ntp4717
Rp4718
(dp4719
g11
g0
(g12
g13
(lp4720
g2399
ag0
(g31
g2
Ntp4721
Rp4722
(dp4723
g6
g0
(g7
g2
Ntp4724
Rp4725
(dp4726
g11
g0
(g12
g13
(lp4727
g177
ag292
ag187
ag71
ag81
ag110
ag187
ag100
atp4728
Rp4729
sbsbag423
ag2804
ag2192
ag0
(g31
g2
Ntp4730
Rp4731
(dp4732
g6
g0
(g7
g2
Ntp4733
Rp4734
(dp4735
g11
g0
(g12
g13
(lp4736
g273
ag120
ag273
ag81
ag110
ag110
ag187
atp4737
Rp4738
sbsbag2732
ag1426
ag2345
ag2021
ag587
ag1877
ag2030
ag1218
ag587
ag2030
atp4739
Rp4740
sbsbag0
(g23
g2
Ntp4741
Rp4742
(dp4743
g6
g0
(g7
g2
Ntp4744
Rp4745
(dp4746
g11
g0
(g12
g13
(lp4747
g1109
ag2633
ag1841
ag2093
ag3993
ag0
(g31
g2
Ntp4748
Rp4749
(dp4750
g6
g0
(g7
g2
Ntp4751
Rp4752
(dp4753
g11
g0
(g12
g13
(lp4754
g149
ag110
ag206
ag187
ag110
ag81
atp4755
Rp4756
sbsbag1940
ag1714
ag1696
ag2759
ag1009
ag542
ag955
ag322
ag772
ag1363
atp4757
Rp4758
sbsbag0
(g23
g2
Ntp4759
Rp4760
(dp4761
g6
g0
(g7
g2
Ntp4762
Rp4763
(dp4764
g11
g0
(g12
g13
(lp4765
g1381
ag1705
ag542
ag4083
ag487
ag496
ag2750
ag818
atp4766
Rp4767
sbsbag0
(g23
g2
Ntp4768
Rp4769
(dp4770
g6
g0
(g7
g2
Ntp4771
Rp4772
(dp4773
g11
g0
(g12
g13
(lp4774
g349
ag901
ag3048
ag1408
atp4775
Rp4776
sbsbag0
(g23
g2
Ntp4777
Rp4778
(dp4779
g6
g0
(g7
g2
Ntp4780
Rp4781
(dp4782
g11
g0
(g12
g13
(lp4783
g3075
ag587
ag1345
ag1390
atp4784
Rp4785
sbsbatp4786
Rp4787
sbsbag0
(g15
g2
Ntp4788
Rp4789
(dp4790
g6
g0
(g7
g2
Ntp4791
Rp4792
(dp4793
g11
g0
(g12
g13
(lp4794
g0
(g23
g2
Ntp4795
Rp4796
(dp4797
g6
g0
(g7
g2
Ntp4798
Rp4799
(dp4800
g11
g0
(g12
g13
(lp4801
g33
ag0
(g31
g2
Ntp4802
Rp4803
(dp4804
g6
g0
(g7
g2
Ntp4805
Rp4806
(dp4807
g11
g0
(g12
g13
(lp4808
g650
ag81
ag51
ag263
ag120
ag187
ag100
atp4809
Rp4810
sbsbag578
ag1009
ag1091
ag0
(g31
g2
Ntp4811
Rp4812
(dp4813
g6
g0
(g7
g2
Ntp4814
Rp4815
(dp4816
g11
g0
(g12
g13
(lp4817
g177
ag110
ag81
ag100
ag120
ag51
ag384
atp4818
Rp4819
sbsbag1164
ag1236
ag1669
ag1615
ag1705
ag256
ag1714
ag2732
ag487
ag496
ag1200
atp4820
Rp4821
sbsbag0
(g23
g2
Ntp4822
Rp4823
(dp4824
g6
g0
(g7
g2
Ntp4825
Rp4826
(dp4827
g11
g0
(g12
g13
(lp4828
g799
ag3930
ag1036
ag587
ag1236
ag405
ag1191
atp4829
Rp4830
sbsbag0
(g23
g2
Ntp4831
Rp4832
(dp4833
g6
g0
(g7
g2
Ntp4834
Rp4835
(dp4836
g11
g0
(g12
g13
(lp4837
g1768
ag405
ag1696
ag1669
atp4838
Rp4839
sbsbag0
(g23
g2
Ntp4840
Rp4841
(dp4842
g6
g0
(g7
g2
Ntp4843
Rp4844
(dp4845
g11
g0
(g12
g13
(lp4846
g349
ag854
ag662
ag2408
ag1696
ag2795
atp4847
Rp4848
sbsbag0
(g23
g2
Ntp4849
Rp4850
(dp4851
g6
g0
(g7
g2
Ntp4852
Rp4853
(dp4854
g11
g0
(g12
g13
(lp4855
g4254
ag3993
ag836
ag4083
ag487
ag496
ag1732
ag1336
ag1480
ag331
atp4856
Rp4857
sbsbag0
(g23
g2
Ntp4858
Rp4859
(dp4860
g6
g0
(g7
g2
Ntp4861
Rp4862
(dp4863
g11
g0
(g12
g13
(lp4864
g680
ag2093
ag322
ag1209
ag1363
ag2750
ag708
ag772
ag1009
ag955
atp4865
Rp4866
sbsbag0
(g23
g2
Ntp4867
Rp4868
(dp4869
g6
g0
(g7
g2
Ntp4870
Rp4871
(dp4872
g11
g0
(g12
g13
(lp4873
g1768
ag1561
ag1091
ag2174
atp4874
Rp4875
sbsbag0
(g23
g2
Ntp4876
Rp4877
(dp4878
g6
g0
(g7
g2
Ntp4879
Rp4880
(dp4881
g11
g0
(g12
g13
(lp4882
g735
ag827
ag937
ag1336
atp4883
Rp4884
sbsbatp4885
Rp4886
sbsbag0
(g15
g2
Ntp4887
Rp4888
(dp4889
g6
g0
(g7
g2
Ntp4890
Rp4891
(dp4892
g11
g0
(g12
g13
(lp4893
g0
(g23
g2
Ntp4894
Rp4895
(dp4896
g6
g0
(g7
g2
Ntp4897
Rp4898
(dp4899
g11
g0
(g12
g13
(lp4900
g33
ag2795
ag1173
ag4317
ag1209
ag708
ag377
ag1669
ag1471
atp4901
Rp4902
sbsbag0
(g23
g2
Ntp4903
Rp4904
(dp4905
g6
g0
(g7
g2
Ntp4906
Rp4907
(dp4908
g11
g0
(g12
g13
(lp4909
g1768
ag1480
ag2651
ag1209
ag505
ag505
atp4910
Rp4911
sbsbag0
(g23
g2
Ntp4912
Rp4913
(dp4914
g6
g0
(g7
g2
Ntp4915
Rp4916
(dp4917
g11
g0
(g12
g13
(lp4918
g1768
ag2417
ag1615
ag643
ag772
ag1408
ag2534
ag3183
ag1082
ag377
atp4919
Rp4920
sbsbag0
(g23
g2
Ntp4921
Rp4922
(dp4923
g6
g0
(g7
g2
Ntp4924
Rp4925
(dp4926
g11
g0
(g12
g13
(lp4927
g1768
ag1534
ag2345
ag0
(g31
g2
Ntp4928
Rp4929
(dp4930
g6
g0
(g7
g2
Ntp4931
Rp4932
(dp4933
g11
g0
(g12
g13
(lp4934
g81
ag206
ag120
ag384
atp4935
Rp4936
sbsbag304
ag199
ag578
ag505
ag901
atp4937
Rp4938
sbsbag0
(g23
g2
Ntp4939
Rp4940
(dp4941
g6
g0
(g7
g2
Ntp4942
Rp4943
(dp4944
g11
g0
(g12
g13
(lp4945
g735
ag772
ag1218
ag0
(g31
g2
Ntp4946
Rp4947
(dp4948
g6
g0
(g7
g2
Ntp4949
Rp4950
(dp4951
g11
g0
(g12
g13
(lp4952
g177
ag51
ag292
ag273
ag120
ag206
ag187
ag110
atp4953
Rp4954
sbsbag2516
ag1363
ag946
ag2750
ag1036
atp4955
Rp4956
sbsbag0
(g23
g2
Ntp4957
Rp4958
(dp4959
g6
g0
(g7
g2
Ntp4960
Rp4961
(dp4962
g11
g0
(g12
g13
(lp4963
g349
ag1009
ag1200
ag1462
ag2075
ag2804
ag1868
atp4964
Rp4965
sbsbag0
(g23
g2
Ntp4966
Rp4967
(dp4968
g6
g0
(g7
g2
Ntp4969
Rp4970
(dp4971
g11
g0
(g12
g13
(lp4972
g680
ag1786
ag3993
ag3453
ag827
ag1877
ag1841
atp4973
Rp4974
sbsbag0
(g23
g2
Ntp4975
Rp4976
(dp4977
g6
g0
(g7
g2
Ntp4978
Rp4979
(dp4980
g11
g0
(g12
g13
(lp4981
g1588
ag405
ag2678
ag827
ag1868
ag3048
atp4982
Rp4983
sbsbag0
(g23
g2
Ntp4984
Rp4985
(dp4986
g6
g0
(g7
g2
Ntp4987
Rp4988
(dp4989
g11
g0
(g12
g13
(lp4990
g33
ag1669
ag1191
ag199
atp4991
Rp4992
sbsbag0
(g23
g2
Ntp4993
Rp4994
(dp4995
g6
g0
(g7
g2
Ntp4996
Rp4997
(dp4998
g11
g0
(g12
g13
(lp4999
g799
ag1669
ag1426
ag2093
ag982
ag0
(g31
g2
Ntp5000
Rp5001
(dp5002
g6
g0
(g7
g2
Ntp5003
Rp5004
(dp5005
g11
g0
(g12
g13
(lp5006
g81
ag263
ag81
ag61
ag100
ag187
ag61
atp5007
Rp5008
sbsbag901
ag3111
ag937
ag1173
atp5009
Rp5010
sbsbag0
(g23
g2
Ntp5011
Rp5012
(dp5013
g6
g0
(g7
g2
Ntp5014
Rp5015
(dp5016
g11
g0
(g12
g13
(lp5017
g973
ag161
ag2678
ag1471
ag1363
ag2363
ag1633
ag1009
ag368
ag2678
atp5018
Rp5019
sbsbatp5020
Rp5021
sbsbag0
(g15
g2
Ntp5022
Rp5023
(dp5024
g6
g0
(g7
g2
Ntp5025
Rp5026
(dp5027
g11
g0
(g12
g13
(lp5028
g0
(g23
g2
Ntp5029
Rp5030
(dp5031
g6
g0
(g7
g2
Ntp5032
Rp5033
(dp5034
g11
g0
(g12
g13
(lp5035
g1299
ag2327
ag982
ag1009
ag1345
ag1823
atp5036
Rp5037
sbsbag0
(g23
g2
Ntp5038
Rp5039
(dp5040
g6
g0
(g7
g2
Ntp5041
Rp5042
(dp5043
g11
g0
(g12
g13
(lp5044
g1804
ag827
ag478
ag827
ag1363
ag2687
ag1823
atp5045
Rp5046
sbsbag0
(g23
g2
Ntp5047
Rp5048
(dp5049
g6
g0
(g7
g2
Ntp5050
Rp5051
(dp5052
g11
g0
(g12
g13
(lp5053
g2399
ag4488
ag818
ag331
ag708
ag0
(g31
g2
Ntp5054
Rp5055
(dp5056
g6
g0
(g7
g2
Ntp5057
Rp5058
(dp5059
g11
g0
(g12
g13
(lp5060
g177
ag861
ag187
ag110
ag81
ag100
ag110
ag187
atp5061
Rp5062
sbsbag2732
ag1137
ag170
ag4290
ag1705
ag3183
ag1741
ag322
ag1705
ag2417
atp5063
Rp5064
sbsbag0
(g23
g2
Ntp5065
Rp5066
(dp5067
g6
g0
(g7
g2
Ntp5068
Rp5069
(dp5070
g11
g0
(g12
g13
(lp5071
g1859
ag1209
ag836
ag560
ag596
ag1561
ag432
ag304
ag1209
ag1426
atp5072
Rp5073
sbsbag0
(g23
g2
Ntp5074
Rp5075
(dp5076
g6
g0
(g7
g2
Ntp5077
Rp5078
(dp5079
g11
g0
(g12
g13
(lp5080
g1453
ag3795
ag1624
ag3930
atp5081
Rp5082
sbsbag0
(g23
g2
Ntp5083
Rp5084
(dp5085
g6
g0
(g7
g2
Ntp5086
Rp5087
(dp5088
g11
g0
(g12
g13
(lp5089
g1768
ag1146
ag1426
ag587
ag1390
ag4947
ag901
ag2327
ag2651
ag2327
atp5090
Rp5091
sbsbag0
(g23
g2
Ntp5092
Rp5093
(dp5094
g6
g0
(g7
g2
Ntp5095
Rp5096
(dp5097
g11
g0
(g12
g13
(lp5098
g1299
ag1245
ag1390
ag1705
ag854
ag1327
ag1218
ag2417
ag699
ag4542
ag901
ag2192
ag937
ag1408
ag1705
ag1137
atp5099
Rp5100
sbsbag0
(g23
g2
Ntp5101
Rp5102
(dp5103
g6
g0
(g7
g2
Ntp5104
Rp5105
(dp5106
g11
g0
(g12
g13
(lp5107
g1109
ag827
ag818
ag1723
ag1543
ag2030
ag946
ag1696
ag818
atp5108
Rp5109
sbsbag0
(g23
g2
Ntp5110
Rp5111
(dp5112
g6
g0
(g7
g2
Ntp5113
Rp5114
(dp5115
g11
g0
(g12
g13
(lp5116
g1381
ag1777
ag4083
ag643
ag587
ag662
ag1678
ag1000
ag3318
ag1426
atp5117
Rp5118
sbsbag0
(g23
g2
Ntp5119
Rp5120
(dp5121
g6
g0
(g7
g2
Ntp5122
Rp5123
(dp5124
g11
g0
(g12
g13
(lp5125
g1054
ag1750
ag569
ag3138
ag560
ag1868
ag1236
ag2624
ag331
atp5126
Rp5127
sbsbag0
(g23
g2
Ntp5128
Rp5129
(dp5130
g6
g0
(g7
g2
Ntp5131
Rp5132
(dp5133
g11
g0
(g12
g13
(lp5134
g735
ag1399
ag1741
ag1209
ag505
ag0
(g31
g2
Ntp5135
Rp5136
(dp5137
g6
g0
(g7
g2
Ntp5138
Rp5139
(dp5140
g11
g0
(g12
g13
(lp5141
g273
ag187
ag110
ag120
ag51
ag61
atp5142
Rp5143
sbsbag1036
ag717
ag3399
ag2021
ag901
ag1750
ag2075
ag478
ag1009
ag2732
atp5144
Rp5145
sbsbag0
(g23
g2
Ntp5146
Rp5147
(dp5148
g6
g0
(g7
g2
Ntp5149
Rp5150
(dp5151
g11
g0
(g12
g13
(lp5152
g882
ag505
ag1786
ag1091
atp5153
Rp5154
sbsbag0
(g23
g2
Ntp5155
Rp5156
(dp5157
g6
g0
(g7
g2
Ntp5158
Rp5159
(dp5160
g11
g0
(g12
g13
(lp5161
g1299
ag487
ag496
ag1741
ag487
ag496
ag2030
ag3993
ag1786
atp5162
Rp5163
sbsbag0
(g23
g2
Ntp5164
Rp5165
(dp5166
g6
g0
(g7
g2
Ntp5167
Rp5168
(dp5169
g11
g0
(g12
g13
(lp5170
g1804
ag3012
ag1786
ag1868
atp5171
Rp5172
sbsbag2833
atp5173
Rp5174
sbsbag0
(g15
g2
Ntp5175
Rp5176
(dp5177
g6
g0
(g7
g2
Ntp5178
Rp5179
(dp5180
g11
g0
(g12
g13
(lp5181
g0
(g23
g2
Ntp5182
Rp5183
(dp5184
g6
g0
(g7
g2
Ntp5185
Rp5186
(dp5187
g11
g0
(g12
g13
(lp5188
g2453
ag937
ag377
ag2489
ag827
ag643
ag322
ag2750
ag1209
ag1786
ag1191
ag0
(g31
g2
Ntp5189
Rp5190
(dp5191
g6
g0
(g7
g2
Ntp5192
Rp5193
(dp5194
g11
g0
(g12
g13
(lp5195
g71
ag51
ag521
ag120
ag292
ag120
ag187
atp5196
Rp5197
sbsbag0
(g31
g2
Ntp5198
Rp5199
(dp5200
g6
g0
(g7
g2
Ntp5201
Rp5202
(dp5203
g11
g0
(g12
g13
(lp5204
g742
ag51
ag110
ag187
ag81
ag0
(g39
g2
Ntp5205
Rp5206
(dp5207
g6
g0
(g7
g2
Ntp5208
Rp5209
(dp5210
g11
g0
(g12
g13
(lp5211
S';'
p5212
atp5213
Rp5214
sbsbatp5215
Rp5216
sbsbag1859
ag487
ag496
ag643
ag763
atp5217
Rp5218
sbsbag0
(g23
g2
Ntp5219
Rp5220
(dp5221
g6
g0
(g7
g2
Ntp5222
Rp5223
(dp5224
g11
g0
(g12
g13
(lp5225
g1904
ag1027
ag827
ag533
ag161
ag3399
atp5226
Rp5227
sbsbag0
(g23
g2
Ntp5228
Rp5229
(dp5230
g6
g0
(g7
g2
Ntp5231
Rp5232
(dp5233
g11
g0
(g12
g13
(lp5234
g1859
ag331
ag955
ag0
(g31
g2
Ntp5235
Rp5236
(dp5237
g6
g0
(g7
g2
Ntp5238
Rp5239
(dp5240
g11
g0
(g12
g13
(lp5241
g273
ag81
ag61
ag100
ag120
ag521
ag51
ag292
ag51
ag384
atp5242
Rp5243
sbsbag3993
ag596
ag3480
ag1000
ag2678
atp5244
Rp5245
sbsbag0
(g23
g2
Ntp5246
Rp5247
(dp5248
g6
g0
(g7
g2
Ntp5249
Rp5250
(dp5251
g11
g0
(g12
g13
(lp5252
g1525
ag161
ag1146
ag1164
atp5253
Rp5254
sbsbag0
(g23
g2
Ntp5255
Rp5256
(dp5257
g6
g0
(g7
g2
Ntp5258
Rp5259
(dp5260
g11
g0
(g12
g13
(lp5261
g1453
ag256
ag304
ag1777
ag587
ag1191
atp5262
Rp5263
sbsbag0
(g23
g2
Ntp5264
Rp5265
(dp5266
g6
g0
(g7
g2
Ntp5267
Rp5268
(dp5269
g11
g0
(g12
g13
(lp5270
g1588
ag587
ag1218
ag2534
ag754
ag1263
ag946
ag1000
ag1940
atp5271
Rp5272
sbsbag0
(g23
g2
Ntp5273
Rp5274
(dp5275
g6
g0
(g7
g2
Ntp5276
Rp5277
(dp5278
g11
g0
(g12
g13
(lp5279
g450
ag1868
ag1841
ag2786
ag331
ag845
ag1841
ag3489
ag487
ag496
atp5280
Rp5281
sbsbag0
(g23
g2
Ntp5282
Rp5283
(dp5284
g6
g0
(g7
g2
Ntp5285
Rp5286
(dp5287
g11
g0
(g12
g13
(lp5288
g2453
ag5236
ag1408
ag699
ag2687
ag1318
ag2732
ag1336
ag199
ag1182
ag487
ag496
ag2795
ag1426
ag1218
ag1471
ag955
atp5289
Rp5290
sbsbag2473
ag1581
atp5291
Rp5292
sbsbag0
(g15
g2
Ntp5293
Rp5294
(dp5295
g6
g0
(g7
g2
Ntp5296
Rp5297
(dp5298
g11
g0
(g12
g13
(lp5299
g0
(g23
g2
Ntp5300
Rp5301
(dp5302
g6
g0
(g7
g2
Ntp5303
Rp5304
(dp5305
g11
g0
(g12
g13
(lp5306
g450
ag560
ag1390
ag2075
atp5307
Rp5308
sbsbag0
(g23
g2
Ntp5309
Rp5310
(dp5311
g6
g0
(g7
g2
Ntp5312
Rp5313
(dp5314
g11
g0
(g12
g13
(lp5315
g237
ag331
ag1363
ag1723
ag1877
ag836
ag0
(g31
g2
Ntp5316
Rp5317
(dp5318
g6
g0
(g7
g2
Ntp5319
Rp5320
(dp5321
g11
g0
(g12
g13
(lp5322
g187
atp5323
Rp5324
sbsbag1480
ag2732
atp5325
Rp5326
sbsbag0
(g23
g2
Ntp5327
Rp5328
(dp5329
g6
g0
(g7
g2
Ntp5330
Rp5331
(dp5332
g11
g0
(g12
g13
(lp5333
g1109
ag3489
ag3048
ag3741
ag827
ag3489
ag1940
ag1994
ag1209
atp5334
Rp5335
sbsbag0
(g23
g2
Ntp5336
Rp5337
(dp5338
g6
g0
(g7
g2
Ntp5339
Rp5340
(dp5341
g11
g0
(g12
g13
(lp5342
g973
ag304
ag1236
ag1009
ag1426
ag1480
ag1786
atp5343
Rp5344
sbsbag0
(g23
g2
Ntp5345
Rp5346
(dp5347
g6
g0
(g7
g2
Ntp5348
Rp5349
(dp5350
g11
g0
(g12
g13
(lp5351
g1768
ag1705
ag1164
ag2408
ag910
ag1624
ag3012
ag827
ag587
ag1426
atp5352
Rp5353
sbsbag2203
ag0
(g23
g2
Ntp5354
Rp5355
(dp5356
g6
g0
(g7
g2
Ntp5357
Rp5358
(dp5359
g11
g0
(g12
g13
(lp5360
g1381
ag2093
ag1669
ag1336
atp5361
Rp5362
sbsbag0
(g23
g2
Ntp5363
Rp5364
(dp5365
g6
g0
(g7
g2
Ntp5366
Rp5367
(dp5368
g11
g0
(g12
g13
(lp5369
g450
ag2633
ag2732
ag901
ag1570
ag0
(g31
g2
Ntp5370
Rp5371
(dp5372
g6
g0
(g7
g2
Ntp5373
Rp5374
(dp5375
g11
g0
(g12
g13
(lp5376
g292
ag187
ag149
ag110
ag81
ag81
ag100
atp5377
Rp5378
sbsbag1426
ag763
ag845
ag4929
ag331
ag1750
ag1741
ag763
ag2408
ag763
atp5379
Rp5380
sbsbag0
(g23
g2
Ntp5381
Rp5382
(dp5383
g6
g0
(g7
g2
Ntp5384
Rp5385
(dp5386
g11
g0
(g12
g13
(lp5387
g1588
ag1399
ag662
ag2408
ag1696
ag0
(g31
g2
Ntp5388
Rp5389
(dp5390
g6
g0
(g7
g2
Ntp5391
Rp5392
(dp5393
g11
g0
(g12
g13
(lp5394
g61
ag187
ag263
ag120
ag100
ag100
ag120
ag61
atp5395
Rp5396
sbsbag1336
ag1777
ag2516
ag3426
ag772
ag1633
ag1777
ag1263
ag304
ag1236
atp5397
Rp5398
sbsbag0
(g23
g2
Ntp5399
Rp5400
(dp5401
g6
g0
(g7
g2
Ntp5402
Rp5403
(dp5404
g11
g0
(g12
g13
(lp5405
g2453
ag3183
ag377
ag0
(g31
g2
Ntp5406
Rp5407
(dp5408
g6
g0
(g7
g2
Ntp5409
Rp5410
(dp5411
g11
g0
(g12
g13
(lp5412
g187
ag292
ag120
ag130
ag51
ag187
ag384
atp5413
Rp5414
sbsbag432
ag322
ag1976
ag928
ag937
atp5415
Rp5416
sbsbag0
(g23
g2
Ntp5417
Rp5418
(dp5419
g6
g0
(g7
g2
Ntp5420
Rp5421
(dp5422
g11
g0
(g12
g13
(lp5423
g624
ag2795
ag1236
ag1082
ag763
ag4182
ag487
ag496
ag2174
ag1777
ag643
atp5424
Rp5425
sbsbatp5426
Rp5427
sbsbag0
(g15
g2
Ntp5428
Rp5429
(dp5430
g6
g0
(g7
g2
Ntp5431
Rp5432
(dp5433
g11
g0
(g12
g13
(lp5434
g0
(g23
g2
Ntp5435
Rp5436
(dp5437
g6
g0
(g7
g2
Ntp5438
Rp5439
(dp5440
g11
g0
(g12
g13
(lp5441
g882
ag1254
ag142
ag4506
ag772
ag1073
ag1036
ag2750
ag560
atp5442
Rp5443
sbsbag0
(g23
g2
Ntp5444
Rp5445
(dp5446
g6
g0
(g7
g2
Ntp5447
Rp5448
(dp5449
g11
g0
(g12
g13
(lp5450
g1054
ag2093
ag1561
ag1841
atp5451
Rp5452
sbsbag0
(g23
g2
Ntp5453
Rp5454
(dp5455
g6
g0
(g7
g2
Ntp5456
Rp5457
(dp5458
g11
g0
(g12
g13
(lp5459
g3345
ag0
(g31
g2
Ntp5460
Rp5461
(dp5462
g6
g0
(g7
g2
Ntp5463
Rp5464
(dp5465
g11
g0
(g12
g13
(lp5466
g861
ag187
ag71
atp5467
Rp5468
sbsbag0
(g31
g2
Ntp5469
Rp5470
(dp5471
g6
g0
(g7
g2
Ntp5472
Rp5473
(dp5474
g11
g0
(g12
g13
(lp5475
g861
ag187
ag521
ag120
ag100
ag187
ag61
ag61
ag81
atp5476
Rp5477
sbsbag0
(g31
g2
Ntp5478
Rp5479
(dp5480
g6
g0
(g7
g2
Ntp5481
Rp5482
(dp5483
g11
g0
(g12
g13
(lp5484
g177
ag292
ag187
ag100
ag81
ag187
atp5485
Rp5486
sbsbag0
(g31
g2
Ntp5487
Rp5488
(dp5489
g6
g0
(g7
g2
Ntp5490
Rp5491
(dp5492
g11
g0
(g12
g13
(lp5493
g216
ag120
ag71
ag100
ag51
ag384
ag61
ag100
atp5494
Rp5495
sbsbatp5496
Rp5497
sbsbag0
(g23
g2
Ntp5498
Rp5499
(dp5500
g6
g0
(g7
g2
Ntp5501
Rp5502
(dp5503
g11
g0
(g12
g13
(lp5504
g680
ag1191
ag377
ag772
ag1363
ag3885
ag1209
ag1868
ag1137
ag643
atp5505
Rp5506
sbsbag0
(g23
g2
Ntp5507
Rp5508
(dp5509
g6
g0
(g7
g2
Ntp5510
Rp5511
(dp5512
g11
g0
(g12
g13
(lp5513
g2453
ag1669
ag2651
ag331
ag1073
ag1027
atp5514
Rp5515
sbsbag0
(g23
g2
Ntp5516
Rp5517
(dp5518
g6
g0
(g7
g2
Ntp5519
Rp5520
(dp5521
g11
g0
(g12
g13
(lp5522
g624
ag542
ag928
ag4110
ag587
ag1027
ag2732
ag1786
ag331
atp5523
Rp5524
sbsbag0
(g23
g2
Ntp5525
Rp5526
(dp5527
g6
g0
(g7
g2
Ntp5528
Rp5529
(dp5530
g11
g0
(g12
g13
(lp5531
g3075
ag1480
ag2651
ag487
ag496
ag928
ag1543
atp5532
Rp5533
sbsbag0
(g23
g2
Ntp5534
Rp5535
(dp5536
g6
g0
(g7
g2
Ntp5537
Rp5538
(dp5539
g11
g0
(g12
g13
(lp5540
g799
ag3111
ag587
ag1036
ag827
ag1480
atp5541
Rp5542
sbsbag0
(g23
g2
Ntp5543
Rp5544
(dp5545
g6
g0
(g7
g2
Ntp5546
Rp5547
(dp5548
g11
g0
(g12
g13
(lp5549
g1904
ag2363
ag1236
ag1471
ag578
ag1318
ag161
ag170
ag1940
ag1480
atp5550
Rp5551
sbsbag0
(g23
g2
Ntp5552
Rp5553
(dp5554
g6
g0
(g7
g2
Ntp5555
Rp5556
(dp5557
g11
g0
(g12
g13
(lp5558
g3570
ag1209
ag1624
ag910
atp5559
Rp5560
sbsbag0
(g23
g2
Ntp5561
Rp5562
(dp5563
g6
g0
(g7
g2
Ntp5564
Rp5565
(dp5566
g11
g0
(g12
g13
(lp5567
g624
ag1462
ag1624
ag3138
ag304
ag2804
ag2525
atp5568
Rp5569
sbsbag0
(g23
g2
Ntp5570
Rp5571
(dp5572
g6
g0
(g7
g2
Ntp5573
Rp5574
(dp5575
g11
g0
(g12
g13
(lp5576
g624
ag3318
ag1218
ag0
(g31
g2
Ntp5577
Rp5578
(dp5579
g6
g0
(g7
g2
Ntp5580
Rp5581
(dp5582
g11
g0
(g12
g13
(lp5583
g206
ag51
ag206
ag71
atp5584
Rp5585
sbsbag1471
ag1786
ag596
ag3183
ag1705
atp5586
Rp5587
sbsbag0
(g23
g2
Ntp5588
Rp5589
(dp5590
g6
g0
(g7
g2
Ntp5591
Rp5592
(dp5593
g11
g0
(g12
g13
(lp5594
g1768
ag161
ag2417
ag1209
ag1218
ag2363
ag1823
atp5595
Rp5596
sbsbag0
(g23
g2
Ntp5597
Rp5598
(dp5599
g6
g0
(g7
g2
Ntp5600
Rp5601
(dp5602
g11
g0
(g12
g13
(lp5603
g1381
ag1823
ag643
ag2750
atp5604
Rp5605
sbsbatp5606
Rp5607
sbsbag0
(g15
g2
Ntp5608
Rp5609
(dp5610
g6
g0
(g7
g2
Ntp5611
Rp5612
(dp5613
g11
g0
(g12
g13
(lp5614
g0
(g23
g2
Ntp5615
Rp5616
(dp5617
g6
g0
(g7
g2
Ntp5618
Rp5619
(dp5620
g11
g0
(g12
g13
(lp5621
g1525
ag2804
ag368
ag1408
atp5622
Rp5623
sbsbag0
(g23
g2
Ntp5624
Rp5625
(dp5626
g6
g0
(g7
g2
Ntp5627
Rp5628
(dp5629
g11
g0
(g12
g13
(lp5630
g624
ag754
ag1200
ag1137
atp5631
Rp5632
sbsbag0
(g23
g2
Ntp5633
Rp5634
(dp5635
g6
g0
(g7
g2
Ntp5636
Rp5637
(dp5638
g11
g0
(g12
g13
(lp5639
g1054
ag3012
ag2363
ag533
atp5640
Rp5641
sbsbag0
(g23
g2
Ntp5642
Rp5643
(dp5644
g6
g0
(g7
g2
Ntp5645
Rp5646
(dp5647
g11
g0
(g12
g13
(lp5648
g973
ag3048
ag377
ag2750
ag2678
ag1327
ag1209
ag1073
ag2525
ag854
atp5649
Rp5650
sbsbag2977
ag0
(g23
g2
Ntp5651
Rp5652
(dp5653
g6
g0
(g7
g2
Ntp5654
Rp5655
(dp5656
g11
g0
(g12
g13
(lp5657
g1768
ag1705
ag937
ag161
ag2075
ag2192
ag1345
ag901
ag1009
ag910
atp5658
Rp5659
sbsbag0
(g23
g2
Ntp5660
Rp5661
(dp5662
g6
g0
(g7
g2
Ntp5663
Rp5664
(dp5665
g11
g0
(g12
g13
(lp5666
g1453
ag772
ag377
ag1471
ag937
ag2327
ag3489
atp5667
Rp5668
sbsbag0
(g23
g2
Ntp5669
Rp5670
(dp5671
g6
g0
(g7
g2
Ntp5672
Rp5673
(dp5674
g11
g0
(g12
g13
(lp5675
g349
ag1209
ag3012
ag2525
atp5676
Rp5677
sbsbag0
(g23
g2
Ntp5678
Rp5679
(dp5680
g6
g0
(g7
g2
Ntp5681
Rp5682
(dp5683
g11
g0
(g12
g13
(lp5684
g3075
ag2093
ag662
ag901
ag1236
ag928
ag405
ag161
ag487
ag496
ag1940
atp5685
Rp5686
sbsbag0
(g23
g2
Ntp5687
Rp5688
(dp5689
g6
g0
(g7
g2
Ntp5690
Rp5691
(dp5692
g11
g0
(g12
g13
(lp5693
g1453
ag2066
ag1714
ag161
ag414
ag0
(g31
g2
Ntp5694
Rp5695
(dp5696
g6
g0
(g7
g2
Ntp5697
Rp5698
(dp5699
g11
g0
(g12
g13
(lp5700
g384
ag187
ag100
ag100
ag120
ag61
atp5701
Rp5702
sbsbag1036
ag423
ag2381
ag2084
ag560
ag1868
ag1426
ag1940
ag1705
ag2678
atp5703
Rp5704
sbsbag0
(g23
g2
Ntp5705
Rp5706
(dp5707
g6
g0
(g7
g2
Ntp5708
Rp5709
(dp5710
g11
g0
(g12
g13
(lp5711
g4254
ag1841
ag991
ag1345
ag587
ag405
ag3273
ag1750
ag2687
ag1777
atp5712
Rp5713
sbsbag0
(g23
g2
Ntp5714
Rp5715
(dp5716
g6
g0
(g7
g2
Ntp5717
Rp5718
(dp5719
g11
g0
(g12
g13
(lp5720
g973
ag2804
ag1146
ag3138
ag901
ag1750
ag818
atp5721
Rp5722
sbsbag0
(g23
g2
Ntp5723
Rp5724
(dp5725
g6
g0
(g7
g2
Ntp5726
Rp5727
(dp5728
g11
g0
(g12
g13
(lp5729
g237
ag3012
ag1336
ag827
ag763
ag1723
ag901
ag781
ag982
ag1027
atp5730
Rp5731
sbsbag0
(g23
g2
Ntp5732
Rp5733
(dp5734
g6
g0
(g7
g2
Ntp5735
Rp5736
(dp5737
g11
g0
(g12
g13
(lp5738
g2399
ag1705
ag505
ag4110
ag304
ag3993
ag982
atp5739
Rp5740
sbsbatp5741
Rp5742
sbsbag0
(g15
g2
Ntp5743
Rp5744
(dp5745
g6
g0
(g7
g2
Ntp5746
Rp5747
(dp5748
g11
g0
(g12
g13
(lp5749
g0
(g23
g2
Ntp5750
Rp5751
(dp5752
g6
g0
(g7
g2
Ntp5753
Rp5754
(dp5755
g11
g0
(g12
g13
(lp5756
g349
ag781
ag1426
ag1209
ag1886
ag2795
atp5757
Rp5758
sbsbag0
(g23
g2
Ntp5759
Rp5760
(dp5761
g6
g0
(g7
g2
Ntp5762
Rp5763
(dp5764
g11
g0
(g12
g13
(lp5765
g882
ag1841
ag991
ag2381
ag901
ag313
ag1327
ag432
ag487
ag496
ag955
atp5766
Rp5767
sbsbag0
(g23
g2
Ntp5768
Rp5769
(dp5770
g6
g0
(g7
g2
Ntp5771
Rp5772
(dp5773
g11
g0
(g12
g13
(lp5774
g4254
ag1705
ag1027
ag3354
ag1561
ag1027
ag2417
atp5775
Rp5776
sbsbag0
(g23
g2
Ntp5777
Rp5778
(dp5779
g6
g0
(g7
g2
Ntp5780
Rp5781
(dp5782
g11
g0
(g12
g13
(lp5783
g735
ag3795
ag827
ag423
ag772
ag1669
atp5784
Rp5785
sbsbag0
(g23
g2
Ntp5786
Rp5787
(dp5788
g6
g0
(g7
g2
Ntp5789
Rp5790
(dp5791
g11
g0
(g12
g13
(lp5792
g450
ag487
ag496
ag937
ag827
ag1263
ag199
ag1534
atp5793
Rp5794
sbsbag0
(g23
g2
Ntp5795
Rp5796
(dp5797
g6
g0
(g7
g2
Ntp5798
Rp5799
(dp5800
g11
g0
(g12
g13
(lp5801
g624
ag1732
ag405
ag1886
atp5802
Rp5803
sbsbag0
(g23
g2
Ntp5804
Rp5805
(dp5806
g6
g0
(g7
g2
Ntp5807
Rp5808
(dp5809
g11
g0
(g12
g13
(lp5810
g237
ag161
ag928
ag4677
ag1534
ag1254
ag2678
atp5811
Rp5812
sbsbag0
(g23
g2
Ntp5813
Rp5814
(dp5815
g6
g0
(g7
g2
Ntp5816
Rp5817
(dp5818
g11
g0
(g12
g13
(lp5819
g735
ag4596
ag1281
ag304
ag1082
ag5055
ag1426
ag1940
ag432
ag2759
ag331
ag505
ag1218
ag1741
ag587
ag2732
atp5820
Rp5821
sbsbatp5822
Rp5823
sbsbag0
(g15
g2
Ntp5824
Rp5825
(dp5826
g6
g0
(g7
g2
Ntp5827
Rp5828
(dp5829
g11
g0
(g12
g13
(lp5830
g0
(g23
g2
Ntp5831
Rp5832
(dp5833
g6
g0
(g7
g2
Ntp5834
Rp5835
(dp5836
g11
g0
(g12
g13
(lp5837
g450
ag901
ag754
ag4317
ag1471
ag1633
ag377
atp5838
Rp5839
sbsbag0
(g23
g2
Ntp5840
Rp5841
(dp5842
g6
g0
(g7
g2
Ntp5843
Rp5844
(dp5845
g11
g0
(g12
g13
(lp5846
g349
ag3012
ag1841
ag331
ag423
ag3795
ag1561
atp5847
Rp5848
sbsbag0
(g23
g2
Ntp5849
Rp5850
(dp5851
g6
g0
(g7
g2
Ntp5852
Rp5853
(dp5854
g11
g0
(g12
g13
(lp5855
g735
ag827
ag937
ag487
ag496
ag1336
ag1823
ag754
ag560
ag1009
ag2075
atp5856
Rp5857
sbsbag0
(g23
g2
Ntp5858
Rp5859
(dp5860
g6
g0
(g7
g2
Ntp5861
Rp5862
(dp5863
g11
g0
(g12
g13
(lp5864
g799
ag3489
ag928
ag1741
ag1471
ag1254
atp5865
Rp5866
sbsbag0
(g23
g2
Ntp5867
Rp5868
(dp5869
g6
g0
(g7
g2
Ntp5870
Rp5871
(dp5872
g11
g0
(g12
g13
(lp5873
g1859
ag827
ag1200
ag514
ag1570
ag1336
ag487
ag1417
ag2804
ag982
atp5874
Rp5875
sbsbag0
(g23
g2
Ntp5876
Rp5877
(dp5878
g6
g0
(g7
g2
Ntp5879
Rp5880
(dp5881
g11
g0
(g12
g13
(lp5882
g1109
ag432
ag423
ag1705
ag505
ag3930
atp5883
Rp5884
sbsbag0
(g23
g2
Ntp5885
Rp5886
(dp5887
g6
g0
(g7
g2
Ntp5888
Rp5889
(dp5890
g11
g0
(g12
g13
(lp5891
g735
ag1868
ag1426
ag827
ag2075
ag3993
ag1570
atp5892
Rp5893
sbsbag0
(g23
g2
Ntp5894
Rp5895
(dp5896
g6
g0
(g7
g2
Ntp5897
Rp5898
(dp5899
g11
g0
(g12
g13
(lp5900
g237
ag3048
ag2804
ag3012
atp5901
Rp5902
sbsbag0
(g23
g2
Ntp5903
Rp5904
(dp5905
g6
g0
(g7
g2
Ntp5906
Rp5907
(dp5908
g11
g0
(g12
g13
(lp5909
g680
ag368
ag1471
ag937
ag1462
ag199
atp5910
Rp5911
sbsbag0
(g23
g2
Ntp5912
Rp5913
(dp5914
g6
g0
(g7
g2
Ntp5915
Rp5916
(dp5917
g11
g0
(g12
g13
(lp5918
g1054
ag487
ag496
ag1200
ag256
ag1200
ag2381
ag414
ag1786
ag487
ag496
ag2075
atp5919
Rp5920
sbsbag0
(g23
g2
Ntp5921
Rp5922
(dp5923
g6
g0
(g7
g2
Ntp5924
Rp5925
(dp5926
g11
g0
(g12
g13
(lp5927
g1859
ag313
ag1363
ag3138
ag901
ag1823
ag377
ag1732
ag487
ag496
atp5928
Rp5929
sbsbag0
(g23
g2
Ntp5930
Rp5931
(dp5932
g6
g0
(g7
g2
Ntp5933
Rp5934
(dp5935
g11
g0
(g12
g13
(lp5936
g237
ag304
ag2732
ag2678
atp5937
Rp5938
sbsbag0
(g23
g2
Ntp5939
Rp5940
(dp5941
g6
g0
(g7
g2
Ntp5942
Rp5943
(dp5944
g11
g0
(g12
g13
(lp5945
g4254
ag1200
ag2957
ag1868
ag304
ag1669
ag1678
ag1073
ag827
ag1714
atp5946
Rp5947
sbsbatp5948
Rp5949
sbsbag0
(g15
g2
Ntp5950
Rp5951
(dp5952
g6
g0
(g7
g2
Ntp5953
Rp5954
(dp5955
g11
g0
(g12
g13
(lp5956
g0
(g23
g2
Ntp5957
Rp5958
(dp5959
g6
g0
(g7
g2
Ntp5960
Rp5961
(dp5962
g11
g0
(g12
g13
(lp5963
g799
ag256
ag1281
ag3993
ag1561
ag1669
atp5964
Rp5965
sbsbag0
(g23
g2
Ntp5966
Rp5967
(dp5968
g6
g0
(g7
g2
Ntp5969
Rp5970
(dp5971
g11
g0
(g12
g13
(lp5972
g1804
ag827
ag142
ag772
ag818
ag928
ag854
ag560
ag161
ag717
atp5973
Rp5974
sbsbag0
(g23
g2
Ntp5975
Rp5976
(dp5977
g6
g0
(g7
g2
Ntp5978
Rp5979
(dp5980
g11
g0
(g12
g13
(lp5981
g624
ag901
ag199
ag4317
ag2093
ag3048
ag423
atp5982
Rp5983
sbsbag0
(g23
g2
Ntp5984
Rp5985
(dp5986
g6
g0
(g7
g2
Ntp5987
Rp5988
(dp5989
g11
g0
(g12
g13
(lp5990
g4254
ag2624
ag708
ag199
atp5991
Rp5992
sbsbag0
(g23
g2
Ntp5993
Rp5994
(dp5995
g6
g0
(g7
g2
Ntp5996
Rp5997
(dp5998
g11
g0
(g12
g13
(lp5999
g1804
ag1471
ag1336
ag1462
ag2732
ag3930
ag2624
atp6000
Rp6001
sbsbag0
(g23
g2
Ntp6002
Rp6003
(dp6004
g6
g0
(g7
g2
Ntp6005
Rp6006
(dp6007
g11
g0
(g12
g13
(lp6008
g1768
ag587
ag1534
ag2651
atp6009
Rp6010
sbsbag0
(g23
g2
Ntp6011
Rp6012
(dp6013
g6
g0
(g7
g2
Ntp6014
Rp6015
(dp6016
g11
g0
(g12
g13
(lp6017
g1453
ag331
ag982
ag836
atp6018
Rp6019
sbsbag0
(g23
g2
Ntp6020
Rp6021
(dp6022
g6
g0
(g7
g2
Ntp6023
Rp6024
(dp6025
g11
g0
(g12
g13
(lp6026
g3345
ag1561
ag1263
ag901
ag1841
ag4596
ag2624
ag2327
ag1164
ag3399
atp6027
Rp6028
sbsbag0
(g23
g2
Ntp6029
Rp6030
(dp6031
g6
g0
(g7
g2
Ntp6032
Rp6033
(dp6034
g11
g0
(g12
g13
(lp6035
g624
ag2363
ag2678
ag161
ag1091
ag1786
atp6036
Rp6037
sbsbag0
(g23
g2
Ntp6038
Rp6039
(dp6040
g6
g0
(g7
g2
Ntp6041
Rp6042
(dp6043
g11
g0
(g12
g13
(lp6044
g1904
ag772
ag1408
ag4812
ag1750
ag377
ag0
(g31
g2
Ntp6045
Rp6046
(dp6047
g6
g0
(g7
g2
Ntp6048
Rp6049
(dp6050
g11
g0
(g12
g13
(lp6051
g81
ag51
atp6052
Rp6053
sbsbag2804
ag596
atp6054
Rp6055
sbsbatp6056
Rp6057
sbsbag0
(g15
g2
Ntp6058
Rp6059
(dp6060
g6
g0
(g7
g2
Ntp6061
Rp6062
(dp6063
g11
g0
(g12
g13
(lp6064
g0
(g23
g2
Ntp6065
Rp6066
(dp6067
g6
g0
(g7
g2
Ntp6068
Rp6069
(dp6070
g11
g0
(g12
g13
(lp6071
g1453
ag405
ag505
ag1633
atp6072
Rp6073
sbsbag0
(g23
g2
Ntp6074
Rp6075
(dp6076
g6
g0
(g7
g2
Ntp6077
Rp6078
(dp6079
g11
g0
(g12
g13
(lp6080
g1859
ag1868
ag1336
ag1462
ag781
ag1543
atp6081
Rp6082
sbsbag0
(g23
g2
Ntp6083
Rp6084
(dp6085
g6
g0
(g7
g2
Ntp6086
Rp6087
(dp6088
g11
g0
(g12
g13
(lp6089
g33
ag1209
ag1408
ag827
ag478
ag256
ag2327
atp6090
Rp6091
sbsbag0
(g23
g2
Ntp6092
Rp6093
(dp6094
g6
g0
(g7
g2
Ntp6095
Rp6096
(dp6097
g11
g0
(g12
g13
(lp6098
g799
ag1705
ag1345
ag1426
atp6099
Rp6100
sbsbag0
(g23
g2
Ntp6101
Rp6102
(dp6103
g6
g0
(g7
g2
Ntp6104
Rp6105
(dp6106
g11
g0
(g12
g13
(lp6107
g3075
ag596
ag4677
ag1823
ag1471
ag662
ag3093
ag1696
ag928
ag763
atp6108
Rp6109
sbsbag0
(g23
g2
Ntp6110
Rp6111
(dp6112
g6
g0
(g7
g2
Ntp6113
Rp6114
(dp6115
g11
g0
(g12
g13
(lp6116
g799
ag542
ag827
ag423
ag1009
ag3489
atp6117
Rp6118
sbsbag0
(g23
g2
Ntp6119
Rp6120
(dp6121
g6
g0
(g7
g2
Ntp6122
Rp6123
(dp6124
g11
g0
(g12
g13
(lp6125
g680
ag1091
ag569
ag2093
ag1218
ag4812
ag1462
ag3489
ag322
ag2516
atp6126
Rp6127
sbsbag0
(g23
g2
Ntp6128
Rp6129
(dp6130
g6
g0
(g7
g2
Ntp6131
Rp6132
(dp6133
g11
g0
(g12
g13
(lp6134
g1299
ag505
ag313
ag2525
ag1471
ag432
atp6135
Rp6136
sbsbag0
(g23
g2
Ntp6137
Rp6138
(dp6139
g6
g0
(g7
g2
Ntp6140
Rp6141
(dp6142
g11
g0
(g12
g13
(lp6143
g349
ag1009
ag1714
ag827
ag423
ag1480
ag1082
atp6144
Rp6145
sbsbag0
(g23
g2
Ntp6146
Rp6147
(dp6148
g6
g0
(g7
g2
Ntp6149
Rp6150
(dp6151
g11
g0
(g12
g13
(lp6152
g1525
ag587
ag2525
ag331
ag910
ag505
ag1480
ag304
ag1209
ag1390
atp6153
Rp6154
sbsbag0
(g23
g2
Ntp6155
Rp6156
(dp6157
g6
g0
(g7
g2
Ntp6158
Rp6159
(dp6160
g11
g0
(g12
g13
(lp6161
g2453
ag717
ag3426
ag1543
ag1009
ag2651
ag6046
ag1345
ag2687
ag717
atp6162
Rp6163
sbsbag0
(g23
g2
Ntp6164
Rp6165
(dp6166
g6
g0
(g7
g2
Ntp6167
Rp6168
(dp6169
g11
g0
(g12
g13
(lp6170
g1299
ag161
ag3183
ag3354
ag587
ag199
ag2075
atp6171
Rp6172
sbsbag1581
ag0
(g23
g2
Ntp6173
Rp6174
(dp6175
g6
g0
(g7
g2
Ntp6176
Rp6177
(dp6178
g11
g0
(g12
g13
(lp6179
g237
ag901
ag3012
ag1741
atp6180
Rp6181
sbsbag0
(g23
g2
Ntp6182
Rp6183
(dp6184
g6
g0
(g7
g2
Ntp6185
Rp6186
(dp6187
g11
g0
(g12
g13
(lp6188
g3345
ag161
ag2075
ag2093
ag1164
ag199
ag256
atp6189
Rp6190
sbsbatp6191
Rp6192
sbsbag0
(g15
g2
Ntp6193
Rp6194
(dp6195
g6
g0
(g7
g2
Ntp6196
Rp6197
(dp6198
g11
g0
(g12
g13
(lp6199
g0
(g23
g2
Ntp6200
Rp6201
(dp6202
g6
g0
(g7
g2
Ntp6203
Rp6204
(dp6205
g11
g0
(g12
g13
(lp6206
g4254
ag2174
ag1471
ag982
ag331
ag1877
atp6207
Rp6208
sbsbag0
(g23
g2
Ntp6209
Rp6210
(dp6211
g6
g0
(g7
g2
Ntp6212
Rp6213
(dp6214
g11
g0
(g12
g13
(lp6215
g1904
ag487
ag496
ag3039
ag533
atp6216
Rp6217
sbsbag0
(g23
g2
Ntp6218
Rp6219
(dp6220
g6
g0
(g7
g2
Ntp6221
Rp6222
(dp6223
g11
g0
(g12
g13
(lp6224
g882
ag1877
ag1390
ag2093
ag937
ag1327
ag304
ag1191
ag662
ag405
atp6225
Rp6226
sbsbag0
(g23
g2
Ntp6227
Rp6228
(dp6229
g6
g0
(g7
g2
Ntp6230
Rp6231
(dp6232
g11
g0
(g12
g13
(lp6233
g3345
ag3021
ag1173
ag2732
ag331
ag313
atp6234
Rp6235
sbsbag0
(g23
g2
Ntp6236
Rp6237
(dp6238
g6
g0
(g7
g2
Ntp6239
Rp6240
(dp6241
g11
g0
(g12
g13
(lp6242
g882
ag955
ag0
(g31
g2
Ntp6243
Rp6244
(dp6245
g6
g0
(g7
g2
Ntp6246
Rp6247
(dp6248
g11
g0
(g12
g13
(lp6249
g100
ag149
ag110
ag100
ag149
ag110
atp6250
Rp6251
sbsbag781
ag1705
ag1191
ag5317
ag2363
ag1705
ag1263
atp6252
Rp6253
sbsbag0
(g23
g2
Ntp6254
Rp6255
(dp6256
g6
g0
(g7
g2
Ntp6257
Rp6258
(dp6259
g11
g0
(g12
g13
(lp6260
g1525
ag3039
ag1462
ag763
ag827
ag781
atp6261
Rp6262
sbsbag0
(g23
g2
Ntp6263
Rp6264
(dp6265
g6
g0
(g7
g2
Ntp6266
Rp6267
(dp6268
g11
g0
(g12
g13
(lp6269
g1381
ag2795
ag836
ag161
ag1218
ag3021
ag3048
atp6270
Rp6271
sbsbag0
(g23
g2
Ntp6272
Rp6273
(dp6274
g6
g0
(g7
g2
Ntp6275
Rp6276
(dp6277
g11
g0
(g12
g13
(lp6278
g349
ag1669
ag2417
ag827
ag763
ag1633
ag199
atp6279
Rp6280
sbsbag5454
ag0
(g23
g2
Ntp6281
Rp6282
(dp6283
g6
g0
(g7
g2
Ntp6284
Rp6285
(dp6286
g11
g0
(g12
g13
(lp6287
g624
ag3012
ag1786
ag2795
atp6288
Rp6289
sbsbag0
(g23
g2
Ntp6290
Rp6291
(dp6292
g6
g0
(g7
g2
Ntp6293
Rp6294
(dp6295
g11
g0
(g12
g13
(lp6296
g1768
ag1336
ag551
ag2327
ag487
ag496
ag432
ag1678
ag1082
ag487
ag496
ag2732
atp6297
Rp6298
sbsbag0
(g23
g2
Ntp6299
Rp6300
(dp6301
g6
g0
(g7
g2
Ntp6302
Rp6303
(dp6304
g11
g0
(g12
g13
(lp6305
g680
ag699
ag322
ag331
ag1036
ag845
ag3489
ag901
ag901
ag1940
atp6306
Rp6307
sbsbatp6308
Rp6309
sbsbag0
(g15
g2
Ntp6310
Rp6311
(dp6312
g6
g0
(g7
g2
Ntp6313
Rp6314
(dp6315
g11
g0
(g12
g13
(lp6316
g0
(g23
g2
Ntp6317
Rp6318
(dp6319
g6
g0
(g7
g2
Ntp6320
Rp6321
(dp6322
g11
g0
(g12
g13
(lp6323
g3345
ag1209
ag1777
ag487
ag496
ag533
ag1534
ag2327
ag1009
ag487
ag496
ag1164
atp6324
Rp6325
sbsbag0
(g23
g2
Ntp6326
Rp6327
(dp6328
g6
g0
(g7
g2
Ntp6329
Rp6330
(dp6331
g11
g0
(g12
g13
(lp6332
g1054
ag1534
ag256
ag1137
ag1009
ag2345
atp6333
Rp6334
sbsbag0
(g23
g2
Ntp6335
Rp6336
(dp6337
g6
g0
(g7
g2
Ntp6338
Rp6339
(dp6340
g11
g0
(g12
g13
(lp6341
g1768
ag505
ag3039
ag699
atp6342
Rp6343
sbsbag0
(g23
g2
Ntp6344
Rp6345
(dp6346
g6
g0
(g7
g2
Ntp6347
Rp6348
(dp6349
g11
g0
(g12
g13
(lp6350
g799
ag331
ag578
ag2336
ag1786
ag717
ag3759
ag3039
ag1426
atp6351
Rp6352
sbsbag0
(g23
g2
Ntp6353
Rp6354
(dp6355
g6
g0
(g7
g2
Ntp6356
Rp6357
(dp6358
g11
g0
(g12
g13
(lp6359
g1109
ag1534
ag937
ag331
ag142
ag2192
ag1750
ag161
ag304
ag1036
atp6360
Rp6361
sbsbag0
(g23
g2
Ntp6362
Rp6363
(dp6364
g6
g0
(g7
g2
Ntp6365
Rp6366
(dp6367
g11
g0
(g12
g13
(lp6368
g1109
ag2093
ag1408
ag1471
ag478
ag1543
ag1345
ag901
ag1009
ag1426
atp6369
Rp6370
sbsbag0
(g23
g2
Ntp6371
Rp6372
(dp6373
g6
g0
(g7
g2
Ntp6374
Rp6375
(dp6376
g11
g0
(g12
g13
(lp6377
g973
ag1624
ag2732
ag2084
ag1009
ag1868
ag1714
ag368
ag587
atp6378
Rp6379
sbsbag0
(g23
g2
Ntp6380
Rp6381
(dp6382
g6
g0
(g7
g2
Ntp6383
Rp6384
(dp6385
g11
g0
(g12
g13
(lp6386
g349
ag1471
ag1786
ag2030
atp6387
Rp6388
sbsbag0
(g23
g2
Ntp6389
Rp6390
(dp6391
g6
g0
(g7
g2
Ntp6392
Rp6393
(dp6394
g11
g0
(g12
g13
(lp6395
g1453
ag256
ag542
ag2588
ag1534
ag2750
ag1200
ag3183
ag487
ag496
atp6396
Rp6397
sbsbag0
(g23
g2
Ntp6398
Rp6399
(dp6400
g6
g0
(g7
g2
Ntp6401
Rp6402
(dp6403
g11
g0
(g12
g13
(lp6404
g882
ag1922
ag533
ag3993
ag3489
ag0
(g31
g2
Ntp6405
Rp6406
(dp6407
g6
g0
(g7
g2
Ntp6408
Rp6409
(dp6410
g11
g0
(g12
g13
(lp6411
g120
ag187
ag71
ag51
ag292
ag120
ag61
atp6412
Rp6413
sbsbag1741
ag1218
ag1082
ag4506
ag901
ag1027
ag818
ag717
ag331
ag322
atp6414
Rp6415
sbsbag0
(g23
g2
Ntp6416
Rp6417
(dp6418
g6
g0
(g7
g2
Ntp6419
Rp6420
(dp6421
g11
g0
(g12
g13
(lp6422
g1453
ag772
ag3048
ag2786
ag772
ag405
ag1336
atp6423
Rp6424
sbsbag0
(g23
g2
Ntp6425
Rp6426
(dp6427
g6
g0
(g7
g2
Ntp6428
Rp6429
(dp6430
g11
g0
(g12
g13
(lp6431
g450
ag199
ag1036
ag2093
ag3111
ag2174
atp6432
Rp6433
sbsbag0
(g23
g2
Ntp6434
Rp6435
(dp6436
g6
g0
(g7
g2
Ntp6437
Rp6438
(dp6439
g11
g0
(g12
g13
(lp6440
g1804
ag2408
ag2624
ag1498
ag331
ag93
ag1390
atp6441
Rp6442
sbsbag0
(g23
g2
Ntp6443
Rp6444
(dp6445
g6
g0
(g7
g2
Ntp6446
Rp6447
(dp6448
g11
g0
(g12
g13
(lp6449
g735
ag1209
ag2192
ag1236
atp6450
Rp6451
sbsbag0
(g23
g2
Ntp6452
Rp6453
(dp6454
g6
g0
(g7
g2
Ntp6455
Rp6456
(dp6457
g11
g0
(g12
g13
(lp6458
g1453
ag487
ag496
ag1164
ag0
(g31
g2
Ntp6459
Rp6460
(dp6461
g6
g0
(g7
g2
Ntp6462
Rp6463
(dp6464
g11
g0
(g12
g13
(lp6465
g187
ag71
ag71
ag51
ag384
ag61
ag187
ag206
atp6466
Rp6467
sbsbag3183
ag1036
ag6046
ag1027
ag818
atp6468
Rp6469
sbsbatp6470
Rp6471
sbsbag0
(g15
g2
Ntp6472
Rp6473
(dp6474
g6
g0
(g7
g2
Ntp6475
Rp6476
(dp6477
g11
g0
(g12
g13
(lp6478
g0
(g23
g2
Ntp6479
Rp6480
(dp6481
g6
g0
(g7
g2
Ntp6482
Rp6483
(dp6484
g11
g0
(g12
g13
(lp6485
g1588
ag587
ag199
ag0
(g31
g2
Ntp6486
Rp6487
(dp6488
g6
g0
(g7
g2
Ntp6489
Rp6490
(dp6491
g11
g0
(g12
g13
(lp6492
g292
ag149
ag110
ag81
ag384
atp6493
Rp6494
sbsbag331
ag405
ag322
atp6495
Rp6496
sbsbag0
(g23
g2
Ntp6497
Rp6498
(dp6499
g6
g0
(g7
g2
Ntp6500
Rp6501
(dp6502
g11
g0
(g12
g13
(lp6503
g1453
ag432
ag699
ag2507
ag304
ag2174
ag717
ag2624
ag772
atp6504
Rp6505
sbsbag0
(g23
g2
Ntp6506
Rp6507
(dp6508
g6
g0
(g7
g2
Ntp6509
Rp6510
(dp6511
g11
g0
(g12
g13
(lp6512
g799
ag3183
ag1345
ag199
atp6513
Rp6514
sbsbag1581
ag0
(g23
g2
Ntp6515
Rp6516
(dp6517
g6
g0
(g7
g2
Ntp6518
Rp6519
(dp6520
g11
g0
(g12
g13
(lp6521
g1768
ag1363
ag991
ag414
ag772
ag2030
ag6046
ag1543
ag1345
ag1137
atp6522
Rp6523
sbsbag0
(g23
g2
Ntp6524
Rp6525
(dp6526
g6
g0
(g7
g2
Ntp6527
Rp6528
(dp6529
g11
g0
(g12
g13
(lp6530
g882
ag560
ag2678
ag487
ag496
ag1200
ag170
ag2687
ag304
ag1471
ag1390
atp6531
Rp6532
sbsbag0
(g23
g2
Ntp6533
Rp6534
(dp6535
g6
g0
(g7
g2
Ntp6536
Rp6537
(dp6538
g11
g0
(g12
g13
(lp6539
g450
ag1669
ag643
ag3012
atp6540
Rp6541
sbsbag0
(g23
g2
Ntp6542
Rp6543
(dp6544
g6
g0
(g7
g2
Ntp6545
Rp6546
(dp6547
g11
g0
(g12
g13
(lp6548
g349
ag2795
ag3318
ag396
ag827
ag1570
ag818
ag542
ag1209
atp6549
Rp6550
sbsbag0
(g23
g2
Ntp6551
Rp6552
(dp6553
g6
g0
(g7
g2
Ntp6554
Rp6555
(dp6556
g11
g0
(g12
g13
(lp6557
g33
ag1543
ag1561
ag3993
atp6558
Rp6559
sbsbag0
(g23
g2
Ntp6560
Rp6561
(dp6562
g6
g0
(g7
g2
Ntp6563
Rp6564
(dp6565
g11
g0
(g12
g13
(lp6566
g2399
ag1263
ag0
(g31
g2
Ntp6567
Rp6568
(dp6569
g6
g0
(g7
g2
Ntp6570
Rp6571
(dp6572
g11
g0
(g12
g13
(lp6573
g149
ag110
ag71
ag120
atp6574
Rp6575
sbsbag1561
ag772
ag1336
ag3273
ag2795
ag1345
ag596
atp6576
Rp6577
sbsbag0
(g23
g2
Ntp6578
Rp6579
(dp6580
g6
g0
(g7
g2
Ntp6581
Rp6582
(dp6583
g11
g0
(g12
g13
(lp6584
g973
ag1534
ag1036
ag1462
ag1236
ag1327
ag901
ag1480
ag142
ag845
atp6585
Rp6586
sbsbag0
(g23
g2
Ntp6587
Rp6588
(dp6589
g6
g0
(g7
g2
Ntp6590
Rp6591
(dp6592
g11
g0
(g12
g13
(lp6593
g1768
ag170
ag1741
ag772
ag708
ag2516
atp6594
Rp6595
sbsbag0
(g23
g2
Ntp6596
Rp6597
(dp6598
g6
g0
(g7
g2
Ntp6599
Rp6600
(dp6601
g11
g0
(g12
g13
(lp6602
g882
ag1669
ag643
ag1426
atp6603
Rp6604
sbsbag0
(g23
g2
Ntp6605
Rp6606
(dp6607
g6
g0
(g7
g2
Ntp6608
Rp6609
(dp6610
g11
g0
(g12
g13
(lp6611
g973
ag717
ag4110
ag1823
ag1209
ag1823
ag0
(g31
g2
Ntp6612
Rp6613
(dp6614
g6
g0
(g7
g2
Ntp6615
Rp6616
(dp6617
g11
g0
(g12
g13
(lp6618
g273
ag81
ag292
atp6619
Rp6620
sbsbag2192
ag331
ag423
atp6621
Rp6622
sbsbatp6623
Rp6624
sbsbag0
(g15
g2
Ntp6625
Rp6626
(dp6627
g6
g0
(g7
g2
Ntp6628
Rp6629
(dp6630
g11
g0
(g12
g13
(lp6631
g0
(g23
g2
Ntp6632
Rp6633
(dp6634
g6
g0
(g7
g2
Ntp6635
Rp6636
(dp6637
g11
g0
(g12
g13
(lp6638
g735
ag2093
ag1426
ag2570
ag754
ag578
ag5317
ag1073
ag533
atp6639
Rp6640
sbsbag0
(g23
g2
Ntp6641
Rp6642
(dp6643
g6
g0
(g7
g2
Ntp6644
Rp6645
(dp6646
g11
g0
(g12
g13
(lp6647
g1109
ag1363
ag1660
ag199
ag1209
ag199
ag3885
ag368
ag1209
ag1408
atp6648
Rp6649
sbsbag0
(g23
g2
Ntp6650
Rp6651
(dp6652
g6
g0
(g7
g2
Ntp6653
Rp6654
(dp6655
g11
g0
(g12
g13
(lp6656
g237
ag845
ag955
ag161
ag1426
ag0
(g31
g2
Ntp6657
Rp6658
(dp6659
g6
g0
(g7
g2
Ntp6660
Rp6661
(dp6662
g11
g0
(g12
g13
(lp6663
g120
ag384
ag177
ag81
ag110
ag216
ag120
ag81
ag100
atp6664
Rp6665
sbsbag487
ag496
ag1696
ag533
ag1994
atp6666
Rp6667
sbsbag0
(g23
g2
Ntp6668
Rp6669
(dp6670
g6
g0
(g7
g2
Ntp6671
Rp6672
(dp6673
g11
g0
(g12
g13
(lp6674
g3345
ag1705
ag170
ag1336
atp6675
Rp6676
sbsbag0
(g23
g2
Ntp6677
Rp6678
(dp6679
g6
g0
(g7
g2
Ntp6680
Rp6681
(dp6682
g11
g0
(g12
g13
(lp6683
g349
ag1732
ag1741
ag587
ag818
ag1073
ag1561
atp6684
Rp6685
sbsbag0
(g23
g2
Ntp6686
Rp6687
(dp6688
g6
g0
(g7
g2
Ntp6689
Rp6690
(dp6691
g11
g0
(g12
g13
(lp6692
g2399
ag587
ag1281
ag487
ag496
ag377
ag3048
ag3930
ag1009
ag587
ag1336
atp6693
Rp6694
sbsbag0
(g23
g2
Ntp6695
Rp6696
(dp6697
g6
g0
(g7
g2
Ntp6698
Rp6699
(dp6700
g11
g0
(g12
g13
(lp6701
g1453
ag1462
ag2750
ag982
atp6702
Rp6703
sbsbag0
(g23
g2
Ntp6704
Rp6705
(dp6706
g6
g0
(g7
g2
Ntp6707
Rp6708
(dp6709
g11
g0
(g12
g13
(lp6710
g624
ag2345
ag1408
ag5578
ag1471
ag3795
ag1390
ag3399
ag1471
atp6711
Rp6712
sbsbag0
(g23
g2
Ntp6713
Rp6714
(dp6715
g6
g0
(g7
g2
Ntp6716
Rp6717
(dp6718
g11
g0
(g12
g13
(lp6719
g1525
ag1705
ag1173
ag596
atp6720
Rp6721
sbsbag0
(g23
g2
Ntp6722
Rp6723
(dp6724
g6
g0
(g7
g2
Ntp6725
Rp6726
(dp6727
g11
g0
(g12
g13
(lp6728
g973
ag587
ag854
ag2075
atp6729
Rp6730
sbsbag0
(g23
g2
Ntp6731
Rp6732
(dp6733
g6
g0
(g7
g2
Ntp6734
Rp6735
(dp6736
g11
g0
(g12
g13
(lp6737
g4254
ag1327
ag2030
ag3183
ag2750
ag0
(g31
g2
Ntp6738
Rp6739
(dp6740
g6
g0
(g7
g2
Ntp6741
Rp6742
(dp6743
g11
g0
(g12
g13
(lp6744
g177
ag149
ag61
ag51
ag81
ag110
ag81
atp6745
Rp6746
sbsbag1777
ag1363
ag2327
ag4317
ag1462
ag1173
ag2525
ag982
ag1471
ag596
atp6747
Rp6748
sbsbag0
(g23
g2
Ntp6749
Rp6750
(dp6751
g6
g0
(g7
g2
Ntp6752
Rp6753
(dp6754
g11
g0
(g12
g13
(lp6755
g2453
ag2417
ag4542
ag2327
ag2408
ag542
ag3894
ag2750
ag587
ag423
atp6756
Rp6757
sbsbag0
(g23
g2
Ntp6758
Rp6759
(dp6760
g6
g0
(g7
g2
Ntp6761
Rp6762
(dp6763
g11
g0
(g12
g13
(lp6764
g349
ag1218
ag3453
ag3039
ag1462
ag93
ag5317
ag414
ag1705
ag2651
atp6765
Rp6766
sbsbag0
(g23
g2
Ntp6767
Rp6768
(dp6769
g6
g0
(g7
g2
Ntp6770
Rp6771
(dp6772
g11
g0
(g12
g13
(lp6773
g1588
ag487
ag496
ag533
ag982
atp6774
Rp6775
sbsbatp6776
Rp6777
sbsbag0
(g15
g2
Ntp6778
Rp6779
(dp6780
g6
g0
(g7
g2
Ntp6781
Rp6782
(dp6783
g11
g0
(g12
g13
(lp6784
g0
(g23
g2
Ntp6785
Rp6786
(dp6787
g6
g0
(g7
g2
Ntp6788
Rp6789
(dp6790
g11
g0
(g12
g13
(lp6791
g973
ag432
ag1191
ag3111
atp6792
Rp6793
sbsbag0
(g23
g2
Ntp6794
Rp6795
(dp6796
g6
g0
(g7
g2
Ntp6797
Rp6798
(dp6799
g11
g0
(g12
g13
(lp6800
g799
ag1009
ag1036
ag1036
atp6801
Rp6802
sbsbag0
(g23
g2
Ntp6803
Rp6804
(dp6805
g6
g0
(g7
g2
Ntp6806
Rp6807
(dp6808
g11
g0
(g12
g13
(lp6809
g4254
ag1471
ag662
ag2192
ag1363
ag2363
ag2750
atp6810
Rp6811
sbsbag0
(g23
g2
Ntp6812
Rp6813
(dp6814
g6
g0
(g7
g2
Ntp6815
Rp6816
(dp6817
g11
g0
(g12
g13
(lp6818
g1768
ag377
ag4677
ag1877
ag772
ag1281
ag1976
ag432
ag505
ag1218
atp6819
Rp6820
sbsbag0
(g23
g2
Ntp6821
Rp6822
(dp6823
g6
g0
(g7
g2
Ntp6824
Rp6825
(dp6826
g11
g0
(g12
g13
(lp6827
g2399
ag1000
ag170
ag3138
ag587
ag3795
ag1390
ag505
ag2408
atp6828
Rp6829
sbsbag0
(g23
g2
Ntp6830
Rp6831
(dp6832
g6
g0
(g7
g2
Ntp6833
Rp6834
(dp6835
g11
g0
(g12
g13
(lp6836
g1109
ag560
ag2075
ag4596
ag3489
ag1841
ag6613
ag1027
ag2678
atp6837
Rp6838
sbsbag0
(g23
g2
Ntp6839
Rp6840
(dp6841
g6
g0
(g7
g2
Ntp6842
Rp6843
(dp6844
g11
g0
(g12
g13
(lp6845
g237
ag256
ag1886
ag1036
ag827
ag1091
atp6846
Rp6847
sbsbag0
(g23
g2
Ntp6848
Rp6849
(dp6850
g6
g0
(g7
g2
Ntp6851
Rp6852
(dp6853
g11
g0
(g12
g13
(lp6854
g1453
ag368
ag2651
ag3048
ag854
ag3795
atp6855
Rp6856
sbsbatp6857
Rp6858
sbsbag0
(g15
g2
Ntp6859
Rp6860
(dp6861
g6
g0
(g7
g2
Ntp6862
Rp6863
(dp6864
g11
g0
(g12
g13
(lp6865
g0
(g23
g2
Ntp6866
Rp6867
(dp6868
g6
g0
(g7
g2
Ntp6869
Rp6870
(dp6871
g11
g0
(g12
g13
(lp6872
g1525
ag854
ag910
ag587
ag1741
ag754
ag854
atp6873
Rp6874
sbsbag0
(g23
g2
Ntp6875
Rp6876
(dp6877
g6
g0
(g7
g2
Ntp6878
Rp6879
(dp6880
g11
g0
(g12
g13
(lp6881
g2453
ag1345
ag937
ag1705
ag377
ag0
(g31
g2
Ntp6882
Rp6883
(dp6884
g6
g0
(g7
g2
Ntp6885
Rp6886
(dp6887
g11
g0
(g12
g13
(lp6888
g292
ag187
ag71
ag120
ag206
ag120
ag187
atp6889
Rp6890
sbsbag560
ag93
ag1218
ag1000
atp6891
Rp6892
sbsbag0
(g23
g2
Ntp6893
Rp6894
(dp6895
g6
g0
(g7
g2
Ntp6896
Rp6897
(dp6898
g11
g0
(g12
g13
(lp6899
g1904
ag2408
ag3021
ag836
atp6900
Rp6901
sbsbag0
(g23
g2
Ntp6902
Rp6903
(dp6904
g6
g0
(g7
g2
Ntp6905
Rp6906
(dp6907
g11
g0
(g12
g13
(lp6908
g1109
ag1823
ag1408
ag304
ag1363
ag2192
ag1000
atp6909
Rp6910
sbsbag0
(g23
g2
Ntp6911
Rp6912
(dp6913
g6
g0
(g7
g2
Ntp6914
Rp6915
(dp6916
g11
g0
(g12
g13
(lp6917
g735
ag161
ag937
ag2417
atp6918
Rp6919
sbsbag0
(g23
g2
Ntp6920
Rp6921
(dp6922
g6
g0
(g7
g2
Ntp6923
Rp6924
(dp6925
g11
g0
(g12
g13
(lp6926
g680
ag256
ag256
ag1390
ag304
ag2327
atp6927
Rp6928
sbsbag0
(g23
g2
Ntp6929
Rp6930
(dp6931
g6
g0
(g7
g2
Ntp6932
Rp6933
(dp6934
g11
g0
(g12
g13
(lp6935
g735
ag3111
ag199
ag285
ag560
ag1480
ag478
ag3021
ag827
atp6936
Rp6937
sbsbag0
(g23
g2
Ntp6938
Rp6939
(dp6940
g6
g0
(g7
g2
Ntp6941
Rp6942
(dp6943
g11
g0
(g12
g13
(lp6944
g1588
ag542
ag1036
ag2408
ag1940
ag1027
ag699
atp6945
Rp6946
sbsbag0
(g23
g2
Ntp6947
Rp6948
(dp6949
g6
g0
(g7
g2
Ntp6950
Rp6951
(dp6952
g11
g0
(g12
g13
(lp6953
g1054
ag2525
ag3741
ag2363
ag304
ag2345
ag6046
ag432
ag901
ag596
atp6954
Rp6955
sbsbag0
(g23
g2
Ntp6956
Rp6957
(dp6958
g6
g0
(g7
g2
Ntp6959
Rp6960
(dp6961
g11
g0
(g12
g13
(lp6962
g2453
ag2624
ag1750
ag2678
ag1705
ag3399
atp6963
Rp6964
sbsbag0
(g23
g2
Ntp6965
Rp6966
(dp6967
g6
g0
(g7
g2
Ntp6968
Rp6969
(dp6970
g11
g0
(g12
g13
(lp6971
g1054
ag1732
ag708
ag2624
atp6972
Rp6973
sbsbag1581
ag0
(g23
g2
Ntp6974
Rp6975
(dp6976
g6
g0
(g7
g2
Ntp6977
Rp6978
(dp6979
g11
g0
(g12
g13
(lp6980
g33
ag772
ag2795
ag1741
atp6981
Rp6982
sbsbag0
(g23
g2
Ntp6983
Rp6984
(dp6985
g6
g0
(g7
g2
Ntp6986
Rp6987
(dp6988
g11
g0
(g12
g13
(lp6989
g882
ag2417
ag1182
ag1191
ag560
ag1714
ag3480
ag1868
ag2345
ag836
atp6990
Rp6991
sbsbag0
(g23
g2
Ntp6992
Rp6993
(dp6994
g6
g0
(g7
g2
Ntp6995
Rp6996
(dp6997
g11
g0
(g12
g13
(lp6998
g1109
ag405
ag708
ag1940
ag587
ag2345
atp6999
Rp7000
sbsbatp7001
Rp7002
sbsbag0
(g15
g2
Ntp7003
Rp7004
(dp7005
g6
g0
(g7
g2
Ntp7006
Rp7007
(dp7008
g11
g0
(g12
g13
(lp7009
g0
(g23
g2
Ntp7010
Rp7011
(dp7012
g6
g0
(g7
g2
Ntp7013
Rp7014
(dp7015
g11
g0
(g12
g13
(lp7016
g3345
ag560
ag955
ag2093
ag423
ag643
ag405
ag1173
ag560
ag1263
atp7017
Rp7018
sbsbag0
(g23
g2
Ntp7019
Rp7020
(dp7021
g6
g0
(g7
g2
Ntp7022
Rp7023
(dp7024
g11
g0
(g12
g13
(lp7025
g3345
ag0
(g31
g2
Ntp7026
Rp7027
(dp7028
g6
g0
(g7
g2
Ntp7029
Rp7030
(dp7031
g11
g0
(g12
g13
(lp7032
g81
ag51
ag120
ag61
ag384
ag149
ag216
atp7033
Rp7034
sbsbag1841
ag1009
ag2687
ag3228
ag569
ag1408
ag1082
ag4677
ag772
ag368
ag569
ag1363
ag1009
ag377
atp7035
Rp7036
sbsbag0
(g23
g2
Ntp7037
Rp7038
(dp7039
g6
g0
(g7
g2
Ntp7040
Rp7041
(dp7042
g11
g0
(g12
g13
(lp7043
g1768
ag827
ag1777
ag827
ag1714
ag1191
ag1877
atp7044
Rp7045
sbsbag0
(g23
g2
Ntp7046
Rp7047
(dp7048
g6
g0
(g7
g2
Ntp7049
Rp7050
(dp7051
g11
g0
(g12
g13
(lp7052
g2453
ag331
ag2417
ag1236
atp7053
Rp7054
sbsbag0
(g23
g2
Ntp7055
Rp7056
(dp7057
g6
g0
(g7
g2
Ntp7058
Rp7059
(dp7060
g11
g0
(g12
g13
(lp7061
g624
ag2363
ag432
ag717
ag1073
ag3183
atp7062
Rp7063
sbsbag0
(g23
g2
Ntp7064
Rp7065
(dp7066
g6
g0
(g7
g2
Ntp7067
Rp7068
(dp7069
g11
g0
(g12
g13
(lp7070
g1453
ag3318
ag3399
ag2651
ag1009
ag1624
atp7071
Rp7072
sbsbag0
(g23
g2
Ntp7073
Rp7074
(dp7075
g6
g0
(g7
g2
Ntp7076
Rp7077
(dp7078
g11
g0
(g12
g13
(lp7079
g735
ag1009
ag1091
ag2786
ag1462
ag3111
ag1363
atp7080
Rp7081
sbsbag0
(g23
g2
Ntp7082
Rp7083
(dp7084
g6
g0
(g7
g2
Ntp7085
Rp7086
(dp7087
g11
g0
(g12
g13
(lp7088
g2399
ag1543
ag560
ag1281
ag587
ag1146
atp7089
Rp7090
sbsbag0
(g23
g2
Ntp7091
Rp7092
(dp7093
g6
g0
(g7
g2
Ntp7094
Rp7095
(dp7096
g11
g0
(g12
g13
(lp7097
g624
ag2795
ag2687
ag1750
atp7098
Rp7099
sbsbag0
(g23
g2
Ntp7100
Rp7101
(dp7102
g6
g0
(g7
g2
Ntp7103
Rp7104
(dp7105
g11
g0
(g12
g13
(lp7106
g882
ag754
ag2624
ag3993
atp7107
Rp7108
sbsbag1581
ag0
(g23
g2
Ntp7109
Rp7110
(dp7111
g6
g0
(g7
g2
Ntp7112
Rp7113
(dp7114
g11
g0
(g12
g13
(lp7115
g1525
ag161
ag533
ag161
ag1263
ag708
ag708
atp7116
Rp7117
sbsbag0
(g23
g2
Ntp7118
Rp7119
(dp7120
g6
g0
(g7
g2
Ntp7121
Rp7122
(dp7123
g11
g0
(g12
g13
(lp7124
g1453
ag2525
ag0
(g31
g2
Ntp7125
Rp7126
(dp7127
g6
g0
(g7
g2
Ntp7128
Rp7129
(dp7130
g11
g0
(g12
g13
(lp7131
g51
ag110
ag206
ag187
atp7132
Rp7133
sbsbag2174
ag1471
ag845
ag2066
ag1994
ag1009
ag1281
atp7134
Rp7135
sbsbag0
(g23
g2
Ntp7136
Rp7137
(dp7138
g6
g0
(g7
g2
Ntp7139
Rp7140
(dp7141
g11
g0
(g12
g13
(lp7142
g3075
ag1705
ag763
ag982
atp7143
Rp7144
sbsbag0
(g23
g2
Ntp7145
Rp7146
(dp7147
g6
g0
(g7
g2
Ntp7148
Rp7149
(dp7150
g11
g0
(g12
g13
(lp7151
g1453
ag161
ag322
ag4596
ag1994
ag1036
ag487
ag1417
ag1886
ag1137
atp7152
Rp7153
sbsbag0
(g23
g2
Ntp7154
Rp7155
(dp7156
g6
g0
(g7
g2
Ntp7157
Rp7158
(dp7159
g11
g0
(g12
g13
(lp7160
g680
ag3183
ag1036
ag304
ag1777
ag432
ag643
atp7161
Rp7162
sbsbatp7163
Rp7164
sbsbag0
(g15
g2
Ntp7165
Rp7166
(dp7167
g6
g0
(g7
g2
Ntp7168
Rp7169
(dp7170
g11
g0
(g12
g13
(lp7171
g0
(g23
g2
Ntp7172
Rp7173
(dp7174
g6
g0
(g7
g2
Ntp7175
Rp7176
(dp7177
g11
g0
(g12
g13
(lp7178
g349
ag1426
ag2507
ag542
ag2093
ag1426
ag3759
ag170
ag3012
ag1200
atp7179
Rp7180
sbsbag0
(g23
g2
Ntp7181
Rp7182
(dp7183
g6
g0
(g7
g2
Ntp7184
Rp7185
(dp7186
g11
g0
(g12
g13
(lp7187
g1525
ag1570
ag142
ag2093
ag1426
ag1823
ag432
atp7188
Rp7189
sbsbag2203
ag0
(g23
g2
Ntp7190
Rp7191
(dp7192
g6
g0
(g7
g2
Ntp7193
Rp7194
(dp7195
g11
g0
(g12
g13
(lp7196
g1588
ag1561
ag1886
ag1027
atp7197
Rp7198
sbsbag0
(g23
g2
Ntp7199
Rp7200
(dp7201
g6
g0
(g7
g2
Ntp7202
Rp7203
(dp7204
g11
g0
(g12
g13
(lp7205
g799
ag1570
ag542
ag2174
atp7206
Rp7207
sbsbag0
(g23
g2
Ntp7208
Rp7209
(dp7210
g6
g0
(g7
g2
Ntp7211
Rp7212
(dp7213
g11
g0
(g12
g13
(lp7214
g2399
ag1886
ag2381
ag1714
atp7215
Rp7216
sbsbag0
(g23
g2
Ntp7217
Rp7218
(dp7219
g6
g0
(g7
g2
Ntp7220
Rp7221
(dp7222
g11
g0
(g12
g13
(lp7223
g973
ag331
ag2363
ag1363
atp7224
Rp7225
sbsbatp7226
Rp7227
sbsbag0
(g15
g2
Ntp7228
Rp7229
(dp7230
g6
g0
(g7
g2
Ntp7231
Rp7232
(dp7233
g11
g0
(g12
g13
(lp7234
g0
(g23
g2
Ntp7235
Rp7236
(dp7237
g6
g0
(g7
g2
Ntp7238
Rp7239
(dp7240
g11
g0
(g12
g13
(lp7241
g33
ag3489
ag3489
ag3489
atp7242
Rp7243
sbsbag0
(g23
g2
Ntp7244
Rp7245
(dp7246
g6
g0
(g7
g2
Ntp7247
Rp7248
(dp7249
g11
g0
(g12
g13
(lp7250
g799
ag1669
ag560
ag377
ag1705
ag3399
atp7251
Rp7252
sbsbag0
(g23
g2
Ntp7253
Rp7254
(dp7255
g6
g0
(g7
g2
Ntp7256
Rp7257
(dp7258
g11
g0
(g12
g13
(lp7259
g1768
ag405
ag1254
ag991
ag2408
ag1480
ag717
ag199
ag560
atp7260
Rp7261
sbsbag0
(g23
g2
Ntp7262
Rp7263
(dp7264
g6
g0
(g7
g2
Ntp7265
Rp7266
(dp7267
g11
g0
(g12
g13
(lp7268
g735
ag1218
ag1354
ag3399
ag1471
ag1137
ag6613
ag781
ag2516
ag2030
atp7269
Rp7270
sbsbag0
(g23
g2
Ntp7271
Rp7272
(dp7273
g6
g0
(g7
g2
Ntp7274
Rp7275
(dp7276
g11
g0
(g12
g13
(lp7277
g2453
ag587
ag3048
ag1036
atp7278
Rp7279
sbsbag0
(g23
g2
Ntp7280
Rp7281
(dp7282
g6
g0
(g7
g2
Ntp7283
Rp7284
(dp7285
g11
g0
(g12
g13
(lp7286
g349
ag1570
ag596
ag0
(g31
g2
Ntp7287
Rp7288
(dp7289
g6
g0
(g7
g2
Ntp7290
Rp7291
(dp7292
g11
g0
(g12
g13
(lp7293
g206
ag120
ag61
ag120
atp7294
Rp7295
sbsbag1480
ag1877
ag322
ag1868
ag331
atp7296
Rp7297
sbsbag0
(g23
g2
Ntp7298
Rp7299
(dp7300
g6
g0
(g7
g2
Ntp7301
Rp7302
(dp7303
g11
g0
(g12
g13
(lp7304
g450
ag2795
ag1137
ag1498
ag1732
ag781
ag836
ag754
ag1471
atp7305
Rp7306
sbsbag0
(g23
g2
Ntp7307
Rp7308
(dp7309
g6
g0
(g7
g2
Ntp7310
Rp7311
(dp7312
g11
g0
(g12
g13
(lp7313
g3570
ag1254
ag2624
ag1236
atp7314
Rp7315
sbsbag0
(g23
g2
Ntp7316
Rp7317
(dp7318
g6
g0
(g7
g2
Ntp7319
Rp7320
(dp7321
g11
g0
(g12
g13
(lp7322
g3345
ag256
ag1480
ag542
atp7323
Rp7324
sbsbag0
(g23
g2
Ntp7325
Rp7326
(dp7327
g6
g0
(g7
g2
Ntp7328
Rp7329
(dp7330
g11
g0
(g12
g13
(lp7331
g3345
ag662
ag4083
ag1886
ag1009
ag2417
ag1976
ag781
ag3930
ag2417
atp7332
Rp7333
sbsbag0
(g23
g2
Ntp7334
Rp7335
(dp7336
g6
g0
(g7
g2
Ntp7337
Rp7338
(dp7339
g11
g0
(g12
g13
(lp7340
g1109
ag754
ag1200
ag901
ag1073
ag170
atp7341
Rp7342
sbsbag0
(g23
g2
Ntp7343
Rp7344
(dp7345
g6
g0
(g7
g2
Ntp7346
Rp7347
(dp7348
g11
g0
(g12
g13
(lp7349
g1299
ag1480
ag3183
ag4506
ag1209
ag2381
ag1777
ag3021
ag1209
atp7350
Rp7351
sbsbag0
(g23
g2
Ntp7352
Rp7353
(dp7354
g6
g0
(g7
g2
Ntp7355
Rp7356
(dp7357
g11
g0
(g12
g13
(lp7358
g1054
ag1624
ag1940
ag3453
ag587
ag505
ag1777
ag405
ag161
atp7359
Rp7360
sbsbag0
(g23
g2
Ntp7361
Rp7362
(dp7363
g6
g0
(g7
g2
Ntp7364
Rp7365
(dp7366
g11
g0
(g12
g13
(lp7367
g349
ag772
ag1200
ag199
ag818
ag3021
ag3021
ag331
ag772
ag2525
atp7368
Rp7369
sbsbag0
(g23
g2
Ntp7370
Rp7371
(dp7372
g6
g0
(g7
g2
Ntp7373
Rp7374
(dp7375
g11
g0
(g12
g13
(lp7376
g1453
ag2516
ag2804
ag1696
atp7377
Rp7378
sbsbatp7379
Rp7380
sbsbag0
(g15
g2
Ntp7381
Rp7382
(dp7383
g6
g0
(g7
g2
Ntp7384
Rp7385
(dp7386
g11
g0
(g12
g13
(lp7387
g0
(g23
g2
Ntp7388
Rp7389
(dp7390
g6
g0
(g7
g2
Ntp7391
Rp7392
(dp7393
g11
g0
(g12
g13
(lp7394
g1904
ag1994
ag1823
ag818
ag331
ag3795
atp7395
Rp7396
sbsbag0
(g23
g2
Ntp7397
Rp7398
(dp7399
g6
g0
(g7
g2
Ntp7400
Rp7401
(dp7402
g11
g0
(g12
g13
(lp7403
g2453
ag1669
ag93
ag6487
ag1209
ag368
ag478
ag2804
ag304
atp7404
Rp7405
sbsbag0
(g23
g2
Ntp7406
Rp7407
(dp7408
g6
g0
(g7
g2
Ntp7409
Rp7410
(dp7411
g11
g0
(g12
g13
(lp7412
g1768
ag161
ag596
ag1777
atp7413
Rp7414
sbsbag0
(g23
g2
Ntp7415
Rp7416
(dp7417
g6
g0
(g7
g2
Ntp7418
Rp7419
(dp7420
g11
g0
(g12
g13
(lp7421
g1109
ag3399
ag937
ag304
ag1534
ag3795
atp7422
Rp7423
sbsbag0
(g23
g2
Ntp7424
Rp7425
(dp7426
g6
g0
(g7
g2
Ntp7427
Rp7428
(dp7429
g11
g0
(g12
g13
(lp7430
g735
ag1705
ag2174
ag1036
atp7431
Rp7432
sbsbag0
(g23
g2
Ntp7433
Rp7434
(dp7435
g6
g0
(g7
g2
Ntp7436
Rp7437
(dp7438
g11
g0
(g12
g13
(lp7439
g2453
ag1209
ag1218
ag1471
ag1714
ag3048
ag1823
ag1471
ag304
ag662
atp7440
Rp7441
sbsbag0
(g23
g2
Ntp7442
Rp7443
(dp7444
g6
g0
(g7
g2
Ntp7445
Rp7446
(dp7447
g11
g0
(g12
g13
(lp7448
g1054
ag1570
ag423
ag2093
ag578
ag1191
ag2624
atp7449
Rp7450
sbsbag0
(g23
g2
Ntp7451
Rp7452
(dp7453
g6
g0
(g7
g2
Ntp7454
Rp7455
(dp7456
g11
g0
(g12
g13
(lp7457
g450
ag1009
ag1886
ag2525
atp7458
Rp7459
sbsbatp7460
Rp7461
sbsbag0
(g15
g2
Ntp7462
Rp7463
(dp7464
g6
g0
(g7
g2
Ntp7465
Rp7466
(dp7467
g11
g0
(g12
g13
(lp7468
g0
(g23
g2
Ntp7469
Rp7470
(dp7471
g6
g0
(g7
g2
Ntp7472
Rp7473
(dp7474
g11
g0
(g12
g13
(lp7475
g1804
ag763
ag4506
ag256
ag560
ag3111
ag3273
ag368
ag414
ag2732
atp7476
Rp7477
sbsbag0
(g23
g2
Ntp7478
Rp7479
(dp7480
g6
g0
(g7
g2
Ntp7481
Rp7482
(dp7483
g11
g0
(g12
g13
(lp7484
g882
ag1254
ag199
ag991
ag845
ag2381
ag322
ag1027
ag1462
atp7485
Rp7486
sbsbag0
(g23
g2
Ntp7487
Rp7488
(dp7489
g6
g0
(g7
g2
Ntp7490
Rp7491
(dp7492
g11
g0
(g12
g13
(lp7493
g237
ag161
ag662
ag5407
ag1561
ag1940
ag1018
ag542
ag1218
atp7494
Rp7495
sbsbag0
(g23
g2
Ntp7496
Rp7497
(dp7498
g6
g0
(g7
g2
Ntp7499
Rp7500
(dp7501
g11
g0
(g12
g13
(lp7502
g799
ag1543
ag2678
ag772
ag845
ag199
atp7503
Rp7504
sbsbag0
(g23
g2
Ntp7505
Rp7506
(dp7507
g6
g0
(g7
g2
Ntp7508
Rp7509
(dp7510
g11
g0
(g12
g13
(lp7511
g624
ag717
ag1354
ag1191
ag304
ag781
ag3273
ag1823
ag1009
ag1336
atp7512
Rp7513
sbsbag0
(g23
g2
Ntp7514
Rp7515
(dp7516
g6
g0
(g7
g2
Ntp7517
Rp7518
(dp7519
g11
g0
(g12
g13
(lp7520
g450
ag827
ag2174
ag6244
ag2093
ag432
ag662
atp7521
Rp7522
sbsbag0
(g23
g2
Ntp7523
Rp7524
(dp7525
g6
g0
(g7
g2
Ntp7526
Rp7527
(dp7528
g11
g0
(g12
g13
(lp7529
g1525
ag1886
ag377
ag2588
ag1009
ag3930
ag1036
ag313
ag1009
atp7530
Rp7531
sbsbag0
(g23
g2
Ntp7532
Rp7533
(dp7534
g6
g0
(g7
g2
Ntp7535
Rp7536
(dp7537
g11
g0
(g12
g13
(lp7538
g2399
ag1786
ag2678
ag4542
ag772
ag1480
ag1777
ag1254
ag487
ag496
atp7539
Rp7540
sbsbag0
(g23
g2
Ntp7541
Rp7542
(dp7543
g6
g0
(g7
g2
Ntp7544
Rp7545
(dp7546
g11
g0
(g12
g13
(lp7547
g2399
ag2408
ag2030
ag1705
ag1164
ag3021
ag2795
ag2381
ag560
ag1426
atp7548
Rp7549
sbsbatp7550
Rp7551
sbsbag0
(g15
g2
Ntp7552
Rp7553
(dp7554
g6
g0
(g7
g2
Ntp7555
Rp7556
(dp7557
g11
g0
(g12
g13
(lp7558
g0
(g23
g2
Ntp7559
Rp7560
(dp7561
g6
g0
(g7
g2
Ntp7562
Rp7563
(dp7564
g11
g0
(g12
g13
(lp7565
g799
ag1471
ag845
ag3471
ag3183
ag2327
ag1236
atp7566
Rp7567
sbsbag0
(g23
g2
Ntp7568
Rp7569
(dp7570
g6
g0
(g7
g2
Ntp7571
Rp7572
(dp7573
g11
g0
(g12
g13
(lp7574
g349
ag256
ag331
ag1263
ag2093
ag2363
atp7575
Rp7576
sbsbag0
(g23
g2
Ntp7577
Rp7578
(dp7579
g6
g0
(g7
g2
Ntp7580
Rp7581
(dp7582
g11
g0
(g12
g13
(lp7583
g237
ag560
ag763
ag487
ag496
ag478
ag754
ag368
atp7584
Rp7585
sbsbag2977
ag0
(g23
g2
Ntp7586
Rp7587
(dp7588
g6
g0
(g7
g2
Ntp7589
Rp7590
(dp7591
g11
g0
(g12
g13
(lp7592
g680
ag0
(g31
g2
Ntp7593
Rp7594
(dp7595
g6
g0
(g7
g2
Ntp7596
Rp7597
(dp7598
g11
g0
(g12
g13
(lp7599
g100
ag81
ag384
ag177
ag51
ag61
atp7600
Rp7601
sbsbag596
ag1994
ag845
ag3534
ag142
ag1036
ag2381
ag4542
ag901
ag1633
ag1741
ag2030
ag1209
ag818
atp7602
Rp7603
sbsbag0
(g23
g2
Ntp7604
Rp7605
(dp7606
g6
g0
(g7
g2
Ntp7607
Rp7608
(dp7609
g11
g0
(g12
g13
(lp7610
g1453
ag1543
ag2678
ag2021
ag1091
ag1543
ag910
ag313
ag1471
atp7611
Rp7612
sbsbag0
(g23
g2
Ntp7613
Rp7614
(dp7615
g6
g0
(g7
g2
Ntp7616
Rp7617
(dp7618
g11
g0
(g12
g13
(lp7619
g624
ag3489
ag1191
ag4290
ag1705
ag3993
ag1741
ag414
ag560
atp7620
Rp7621
sbsbag0
(g23
g2
Ntp7622
Rp7623
(dp7624
g6
g0
(g7
g2
Ntp7625
Rp7626
(dp7627
g11
g0
(g12
g13
(lp7628
g735
ag854
ag1390
ag0
(g31
g2
Ntp7629
Rp7630
(dp7631
g6
g0
(g7
g2
Ntp7632
Rp7633
(dp7634
g11
g0
(g12
g13
(lp7635
g206
ag120
ag521
ag861
atp7636
Rp7637
sbsbag901
ag3048
ag578
ag1823
ag2093
atp7638
Rp7639
sbsbag0
(g23
g2
Ntp7640
Rp7641
(dp7642
g6
g0
(g7
g2
Ntp7643
Rp7644
(dp7645
g11
g0
(g12
g13
(lp7646
g799
ag3183
ag596
ag827
ag1994
ag699
atp7647
Rp7648
sbsbag0
(g23
g2
Ntp7649
Rp7650
(dp7651
g6
g0
(g7
g2
Ntp7652
Rp7653
(dp7654
g11
g0
(g12
g13
(lp7655
g4254
ag1073
ag1868
ag578
ag2093
ag542
atp7656
Rp7657
sbsbag0
(g23
g2
Ntp7658
Rp7659
(dp7660
g6
g0
(g7
g2
Ntp7661
Rp7662
(dp7663
g11
g0
(g12
g13
(lp7664
g882
ag487
ag496
ag2030
ag4803
ag1823
ag596
ag1018
ag699
ag1281
atp7665
Rp7666
sbsbag0
(g23
g2
Ntp7667
Rp7668
(dp7669
g6
g0
(g7
g2
Ntp7670
Rp7671
(dp7672
g11
g0
(g12
g13
(lp7673
g3075
ag1841
ag2957
ag405
ag2093
ag2174
ag3894
ag199
ag1669
ag2678
atp7674
Rp7675
sbsbag0
(g23
g2
Ntp7676
Rp7677
(dp7678
g6
g0
(g7
g2
Ntp7679
Rp7680
(dp7681
g11
g0
(g12
g13
(lp7682
g624
ag901
ag3795
ag533
atp7683
Rp7684
sbsbatp7685
Rp7686
sbsbag0
(g15
g2
Ntp7687
Rp7688
(dp7689
g6
g0
(g7
g2
Ntp7690
Rp7691
(dp7692
g11
g0
(g12
g13
(lp7693
g0
(g23
g2
Ntp7694
Rp7695
(dp7696
g6
g0
(g7
g2
Ntp7697
Rp7698
(dp7699
g11
g0
(g12
g13
(lp7700
g4254
ag1363
ag4290
ag313
ag1209
ag3183
ag3894
ag2795
ag560
ag377
atp7701
Rp7702
sbsbag0
(g23
g2
Ntp7703
Rp7704
(dp7705
g6
g0
(g7
g2
Ntp7706
Rp7707
(dp7708
g11
g0
(g12
g13
(lp7709
g1588
ag1561
ag596
ag487
ag496
ag1741
ag256
ag432
atp7710
Rp7711
sbsbag2473
ag0
(g23
g2
Ntp7712
Rp7713
(dp7714
g6
g0
(g7
g2
Ntp7715
Rp7716
(dp7717
g11
g0
(g12
g13
(lp7718
g1453
ag1624
ag578
ag304
ag955
ag2174
ag854
atp7719
Rp7720
sbsbag0
(g23
g2
Ntp7721
Rp7722
(dp7723
g6
g0
(g7
g2
Ntp7724
Rp7725
(dp7726
g11
g0
(g12
g13
(lp7727
g1299
ag1786
ag3039
ag313
atp7728
Rp7729
sbsbag0
(g23
g2
Ntp7730
Rp7731
(dp7732
g6
g0
(g7
g2
Ntp7733
Rp7734
(dp7735
g11
g0
(g12
g13
(lp7736
g735
ag1534
ag142
ag587
ag578
ag928
ag256
atp7737
Rp7738
sbsbag0
(g23
g2
Ntp7739
Rp7740
(dp7741
g6
g0
(g7
g2
Ntp7742
Rp7743
(dp7744
g11
g0
(g12
g13
(lp7745
g1054
ag1705
ag368
ag423
atp7746
Rp7747
sbsbag0
(g23
g2
Ntp7748
Rp7749
(dp7750
g6
g0
(g7
g2
Ntp7751
Rp7752
(dp7753
g11
g0
(g12
g13
(lp7754
g799
ag1027
ag1705
ag717
ag827
ag2687
atp7755
Rp7756
sbsbag0
(g23
g2
Ntp7757
Rp7758
(dp7759
g6
g0
(g7
g2
Ntp7760
Rp7761
(dp7762
g11
g0
(g12
g13
(lp7763
g33
ag1868
ag1426
ag2408
ag569
ag3975
ag3795
ag256
ag423
ag542
atp7764
Rp7765
sbsbag0
(g23
g2
Ntp7766
Rp7767
(dp7768
g6
g0
(g7
g2
Ntp7769
Rp7770
(dp7771
g11
g0
(g12
g13
(lp7772
g1768
ag93
ag199
ag2525
ag161
ag405
atp7773
Rp7774
sbsbag0
(g23
g2
Ntp7775
Rp7776
(dp7777
g6
g0
(g7
g2
Ntp7778
Rp7779
(dp7780
g11
g0
(g12
g13
(lp7781
g349
ag1462
ag313
ag142
atp7782
Rp7783
sbsbag0
(g23
g2
Ntp7784
Rp7785
(dp7786
g6
g0
(g7
g2
Ntp7787
Rp7788
(dp7789
g11
g0
(g12
g13
(lp7790
g1525
ag854
ag2174
ag2804
atp7791
Rp7792
sbsbag0
(g23
g2
Ntp7793
Rp7794
(dp7795
g6
g0
(g7
g2
Ntp7796
Rp7797
(dp7798
g11
g0
(g12
g13
(lp7799
g1381
ag772
ag1390
ag587
ag2525
ag432
ag405
ag161
ag901
ag142
atp7800
Rp7801
sbsbag0
(g23
g2
Ntp7802
Rp7803
(dp7804
g6
g0
(g7
g2
Ntp7805
Rp7806
(dp7807
g11
g0
(g12
g13
(lp7808
g3345
ag587
ag1714
ag505
ag662
ag1624
ag3183
ag1705
ag901
ag763
atp7809
Rp7810
sbsbatp7811
Rp7812
sbsbag0
(g15
g2
Ntp7813
Rp7814
(dp7815
g6
g0
(g7
g2
Ntp7816
Rp7817
(dp7818
g11
g0
(g12
g13
(lp7819
g0
(g23
g2
Ntp7820
Rp7821
(dp7822
g6
g0
(g7
g2
Ntp7823
Rp7824
(dp7825
g11
g0
(g12
g13
(lp7826
g1859
ag560
ag1561
ag377
atp7827
Rp7828
sbsbag0
(g23
g2
Ntp7829
Rp7830
(dp7831
g6
g0
(g7
g2
Ntp7832
Rp7833
(dp7834
g11
g0
(g12
g13
(lp7835
g349
ag1209
ag478
ag772
ag937
ag542
ag3993
ag1462
ag2408
ag1036
atp7836
Rp7837
sbsbag0
(g23
g2
Ntp7838
Rp7839
(dp7840
g6
g0
(g7
g2
Ntp7841
Rp7842
(dp7843
g11
g0
(g12
g13
(lp7844
g3570
ag2804
ag93
ag3957
ag901
ag2687
ag955
ag405
ag772
atp7845
Rp7846
sbsbag0
(g23
g2
Ntp7847
Rp7848
(dp7849
g6
g0
(g7
g2
Ntp7850
Rp7851
(dp7852
g11
g0
(g12
g13
(lp7853
g1804
ag304
ag836
ag1009
ag1741
ag3048
ag3318
ag1471
ag2093
ag1137
atp7854
Rp7855
sbsbag0
(g23
g2
Ntp7856
Rp7857
(dp7858
g6
g0
(g7
g2
Ntp7859
Rp7860
(dp7861
g11
g0
(g12
g13
(lp7862
g973
ag3930
ag2030
ag2093
ag2804
ag2363
atp7863
Rp7864
sbsbag0
(g23
g2
Ntp7865
Rp7866
(dp7867
g6
g0
(g7
g2
Ntp7868
Rp7869
(dp7870
g11
g0
(g12
g13
(lp7871
g1859
ag3732
ag1164
ag560
ag199
ag0
(g31
g2
Ntp7872
Rp7873
(dp7874
g6
g0
(g7
g2
Ntp7875
Rp7876
(dp7877
g11
g0
(g12
g13
(lp7878
g263
ag110
ag187
ag273
ag120
ag216
ag187
atp7879
Rp7880
sbsbag836
ag2732
ag3021
ag4083
ag161
ag2192
ag1281
ag533
ag2093
ag1137
atp7881
Rp7882
sbsbag0
(g23
g2
Ntp7883
Rp7884
(dp7885
g6
g0
(g7
g2
Ntp7886
Rp7887
(dp7888
g11
g0
(g12
g13
(lp7889
g973
ag1561
ag2174
ag3138
ag1705
ag1786
ag1363
ag3795
ag1462
atp7890
Rp7891
sbsbag0
(g23
g2
Ntp7892
Rp7893
(dp7894
g6
g0
(g7
g2
Ntp7895
Rp7896
(dp7897
g11
g0
(g12
g13
(lp7898
g1109
ag1345
ag1777
ag6568
ag827
ag699
ag1940
ag1027
ag1705
atp7899
Rp7900
sbsbatp7901
Rp7902
sbsbag0
(g15
g2
Ntp7903
Rp7904
(dp7905
g6
g0
(g7
g2
Ntp7906
Rp7907
(dp7908
g11
g0
(g12
g13
(lp7909
g0
(g23
g2
Ntp7910
Rp7911
(dp7912
g6
g0
(g7
g2
Ntp7913
Rp7914
(dp7915
g11
g0
(g12
g13
(lp7916
g973
ag4488
ag818
ag587
ag256
ag3228
ag596
ag569
ag3012
ag3957
ag304
ag3048
ag937
ag142
ag1705
ag533
atp7917
Rp7918
sbsbag0
(g23
g2
Ntp7919
Rp7920
(dp7921
g6
g0
(g7
g2
Ntp7922
Rp7923
(dp7924
g11
g0
(g12
g13
(lp7925
g973
ag1408
ag3354
ag1480
ag1209
ag1543
ag487
ag1417
ag1570
ag331
ag1741
atp7926
Rp7927
sbsbag0
(g23
g2
Ntp7928
Rp7929
(dp7930
g6
g0
(g7
g2
Ntp7931
Rp7932
(dp7933
g11
g0
(g12
g13
(lp7934
g1859
ag1994
ag1777
ag2408
ag1137
ag3822
ag772
ag368
ag662
ag781
atp7935
Rp7936
sbsbag0
(g23
g2
Ntp7937
Rp7938
(dp7939
g6
g0
(g7
g2
Ntp7940
Rp7941
(dp7942
g11
g0
(g12
g13
(lp7943
g1525
ag1091
ag910
ag2093
ag1696
ag2174
atp7944
Rp7945
sbsbag0
(g23
g2
Ntp7946
Rp7947
(dp7948
g6
g0
(g7
g2
Ntp7949
Rp7950
(dp7951
g11
g0
(g12
g13
(lp7952
g237
ag2408
ag2678
ag1705
ag910
ag2795
ag405
ag1209
ag772
ag142
atp7953
Rp7954
sbsbag0
(g23
g2
Ntp7955
Rp7956
(dp7957
g6
g0
(g7
g2
Ntp7958
Rp7959
(dp7960
g11
g0
(g12
g13
(lp7961
g3075
ag1705
ag3183
ag2075
atp7962
Rp7963
sbsbag0
(g23
g2
Ntp7964
Rp7965
(dp7966
g6
g0
(g7
g2
Ntp7967
Rp7968
(dp7969
g11
g0
(g12
g13
(lp7970
g882
ag1281
ag3741
ag708
ag587
ag2795
ag3678
ag93
ag2408
ag1426
atp7971
Rp7972
sbsbag2833
atp7973
Rp7974
sbsbag0
(g15
g2
Ntp7975
Rp7976
(dp7977
g6
g0
(g7
g2
Ntp7978
Rp7979
(dp7980
g11
g0
(g12
g13
(lp7981
g0
(g23
g2
Ntp7982
Rp7983
(dp7984
g6
g0
(g7
g2
Ntp7985
Rp7986
(dp7987
g11
g0
(g12
g13
(lp7988
g973
ag304
ag836
ag161
ag2030
ag170
ag1091
atp7989
Rp7990
sbsbag0
(g23
g2
Ntp7991
Rp7992
(dp7993
g6
g0
(g7
g2
Ntp7994
Rp7995
(dp7996
g11
g0
(g12
g13
(lp7997
g1904
ag2408
ag1841
ag772
ag1218
ag854
ag643
ag1209
ag2408
ag1036
atp7998
Rp7999
sbsbag0
(g23
g2
Ntp8000
Rp8001
(dp8002
g6
g0
(g7
g2
Ntp8003
Rp8004
(dp8005
g11
g0
(g12
g13
(lp8006
g2399
ag1009
ag1390
ag7027
ag2363
ag1281
ag6046
ag199
ag533
atp8007
Rp8008
sbsbag0
(g23
g2
Ntp8009
Rp8010
(dp8011
g6
g0
(g7
g2
Ntp8012
Rp8013
(dp8014
g11
g0
(g12
g13
(lp8015
g1525
ag1345
ag1886
ag432
atp8016
Rp8017
sbsbag0
(g23
g2
Ntp8018
Rp8019
(dp8020
g6
g0
(g7
g2
Ntp8021
Rp8022
(dp8023
g11
g0
(g12
g13
(lp8024
g1904
ag1209
ag199
ag836
atp8025
Rp8026
sbsbag0
(g23
g2
Ntp8027
Rp8028
(dp8029
g6
g0
(g7
g2
Ntp8030
Rp8031
(dp8032
g11
g0
(g12
g13
(lp8033
g799
ag1471
ag1868
ag7126
ag161
ag1191
ag937
atp8034
Rp8035
sbsbag0
(g23
g2
Ntp8036
Rp8037
(dp8038
g6
g0
(g7
g2
Ntp8039
Rp8040
(dp8041
g11
g0
(g12
g13
(lp8042
g1299
ag3183
ag1705
ag1426
ag560
ag2624
atp8043
Rp8044
sbsbag0
(g23
g2
Ntp8045
Rp8046
(dp8047
g6
g0
(g7
g2
Ntp8048
Rp8049
(dp8050
g11
g0
(g12
g13
(lp8051
g973
ag560
ag322
ag1281
atp8052
Rp8053
sbsbag0
(g23
g2
Ntp8054
Rp8055
(dp8056
g6
g0
(g7
g2
Ntp8057
Rp8058
(dp8059
g11
g0
(g12
g13
(lp8060
g237
ag1073
ag3111
ag4317
ag1462
ag432
ag662
ag3993
ag3021
atp8061
Rp8062
sbsbag0
(g23
g2
Ntp8063
Rp8064
(dp8065
g6
g0
(g7
g2
Ntp8066
Rp8067
(dp8068
g11
g0
(g12
g13
(lp8069
g1453
ag1254
ag1263
ag4290
ag560
ag3318
ag2678
ag414
ag331
atp8070
Rp8071
sbsbag0
(g23
g2
Ntp8072
Rp8073
(dp8074
g6
g0
(g7
g2
Ntp8075
Rp8076
(dp8077
g11
g0
(g12
g13
(lp8078
g1381
ag0
(g31
g2
Ntp8079
Rp8080
(dp8081
g6
g0
(g7
g2
Ntp8082
Rp8083
(dp8084
g11
g0
(g12
g13
(lp8085
g384
ag149
ag292
ag292
ag120
ag61
atp8086
Rp8087
sbsbag1714
ag2408
ag2687
ag2426
ag1164
ag1777
ag2381
ag6568
ag304
ag1173
ag1841
ag717
ag1009
ag1336
atp8088
Rp8089
sbsbag0
(g23
g2
Ntp8090
Rp8091
(dp8092
g6
g0
(g7
g2
Ntp8093
Rp8094
(dp8095
g11
g0
(g12
g13
(lp8096
g2453
ag256
ag487
ag496
ag1940
ag2408
ag505
atp8097
Rp8098
sbsbag0
(g23
g2
Ntp8099
Rp8100
(dp8101
g6
g0
(g7
g2
Ntp8102
Rp8103
(dp8104
g11
g0
(g12
g13
(lp8105
g1804
ag2174
ag1137
ag1705
ag432
ag1696
atp8106
Rp8107
sbsbatp8108
Rp8109
sbsbag0
(g15
g2
Ntp8110
Rp8111
(dp8112
g6
g0
(g7
g2
Ntp8113
Rp8114
(dp8115
g11
g0
(g12
g13
(lp8116
g0
(g23
g2
Ntp8117
Rp8118
(dp8119
g6
g0
(g7
g2
Ntp8120
Rp8121
(dp8122
g11
g0
(g12
g13
(lp8123
g4254
ag699
ag2516
ag1534
atp8124
Rp8125
sbsbag0
(g23
g2
Ntp8126
Rp8127
(dp8128
g6
g0
(g7
g2
Ntp8129
Rp8130
(dp8131
g11
g0
(g12
g13
(lp8132
g973
ag304
ag1164
ag1462
ag1263
ag414
ag1877
ag1462
ag487
ag496
ag1363
atp8133
Rp8134
sbsbag0
(g23
g2
Ntp8135
Rp8136
(dp8137
g6
g0
(g7
g2
Ntp8138
Rp8139
(dp8140
g11
g0
(g12
g13
(lp8141
g33
ag1940
ag1354
ag3399
ag587
ag142
ag3273
ag505
ag928
ag2030
atp8142
Rp8143
sbsbag0
(g23
g2
Ntp8144
Rp8145
(dp8146
g6
g0
(g7
g2
Ntp8147
Rp8148
(dp8149
g11
g0
(g12
g13
(lp8150
g882
ag643
ag3318
ag4506
ag1696
ag2804
ag2732
ag1146
ag1705
atp8151
Rp8152
sbsbag0
(g23
g2
Ntp8153
Rp8154
(dp8155
g6
g0
(g7
g2
Ntp8156
Rp8157
(dp8158
g11
g0
(g12
g13
(lp8159
g624
ag1462
ag3048
ag533
atp8160
Rp8161
sbsbag2203
ag0
(g23
g2
Ntp8162
Rp8163
(dp8164
g6
g0
(g7
g2
Ntp8165
Rp8166
(dp8167
g11
g0
(g12
g13
(lp8168
g1453
ag1624
ag1534
ag6244
ag1471
ag2516
ag717
ag1786
ag304
atp8169
Rp8170
sbsbag0
(g23
g2
Ntp8171
Rp8172
(dp8173
g6
g0
(g7
g2
Ntp8174
Rp8175
(dp8176
g11
g0
(g12
g13
(lp8177
g973
ag142
ag4083
ag93
ag161
ag2750
ag487
ag1417
ag1191
ag161
ag910
atp8178
Rp8179
sbsbag0
(g23
g2
Ntp8180
Rp8181
(dp8182
g6
g0
(g7
g2
Ntp8183
Rp8184
(dp8185
g11
g0
(g12
g13
(lp8186
g1859
ag587
ag3021
ag1940
atp8187
Rp8188
sbsbag0
(g23
g2
Ntp8189
Rp8190
(dp8191
g6
g0
(g7
g2
Ntp8192
Rp8193
(dp8194
g11
g0
(g12
g13
(lp8195
g2399
ag3795
ag1408
ag2003
ag304
ag845
ag1036
ag1534
ag313
atp8196
Rp8197
sbsbatp8198
Rp8199
sbsbag0
(g15
g2
Ntp8200
Rp8201
(dp8202
g6
g0
(g7
g2
Ntp8203
Rp8204
(dp8205
g11
g0
(g12
g13
(lp8206
g0
(g23
g2
Ntp8207
Rp8208
(dp8209
g6
g0
(g7
g2
Ntp8210
Rp8211
(dp8212
g11
g0
(g12
g13
(lp8213
g349
ag2408
ag717
ag5001
ag170
ag2075
ag6046
ag2750
ag1200
atp8214
Rp8215
sbsbag0
(g23
g2
Ntp8216
Rp8217
(dp8218
g6
g0
(g7
g2
Ntp8219
Rp8220
(dp8221
g11
g0
(g12
g13
(lp8222
g973
ag662
ag6244
ag2345
ag772
ag1624
ag1678
ag1669
ag1209
ag569
atp8223
Rp8224
sbsbag0
(g23
g2
Ntp8225
Rp8226
(dp8227
g6
g0
(g7
g2
Ntp8228
Rp8229
(dp8230
g11
g0
(g12
g13
(lp8231
g1804
ag1561
ag596
ag0
(g31
g2
Ntp8232
Rp8233
(dp8234
g6
g0
(g7
g2
Ntp8235
Rp8236
(dp8237
g11
g0
(g12
g13
(lp8238
g292
ag187
ag71
ag51
ag61
atp8239
Rp8240
sbsbag487
ag496
ag1669
ag836
ag256
ag827
atp8241
Rp8242
sbsbag0
(g23
g2
Ntp8243
Rp8244
(dp8245
g6
g0
(g7
g2
Ntp8246
Rp8247
(dp8248
g11
g0
(g12
g13
(lp8249
g624
ag1471
ag505
ag991
ag304
ag708
ag322
atp8250
Rp8251
sbsbag0
(g23
g2
Ntp8252
Rp8253
(dp8254
g6
g0
(g7
g2
Ntp8255
Rp8256
(dp8257
g11
g0
(g12
g13
(lp8258
g735
ag505
ag763
ag2408
ag142
ag4695
ag1462
ag3183
ag1263
ag1823
atp8259
Rp8260
sbsbag0
(g23
g2
Ntp8261
Rp8262
(dp8263
g6
g0
(g7
g2
Ntp8264
Rp8265
(dp8266
g11
g0
(g12
g13
(lp8267
g1768
ag487
ag496
ag910
ag1471
ag596
ag1994
ag405
ag587
ag331
ag322
atp8268
Rp8269
sbsbag0
(g23
g2
Ntp8270
Rp8271
(dp8272
g6
g0
(g7
g2
Ntp8273
Rp8274
(dp8275
g11
g0
(g12
g13
(lp8276
g3345
ag4947
ag1777
ag772
ag2345
ag1832
ag596
ag1426
ag505
ag4110
ag331
ag2192
ag662
ag1841
ag1209
ag322
atp8277
Rp8278
sbsbag0
(g23
g2
Ntp8279
Rp8280
(dp8281
g6
g0
(g7
g2
Ntp8282
Rp8283
(dp8284
g11
g0
(g12
g13
(lp8285
g1054
ag304
ag708
ag533
atp8286
Rp8287
sbsbag0
(g23
g2
Ntp8288
Rp8289
(dp8290
g6
g0
(g7
g2
Ntp8291
Rp8292
(dp8293
g11
g0
(g12
g13
(lp8294
g4254
ag3012
ag1480
ag1561
atp8295
Rp8296
sbsbag0
(g23
g2
Ntp8297
Rp8298
(dp8299
g6
g0
(g7
g2
Ntp8300
Rp8301
(dp8302
g11
g0
(g12
g13
(lp8303
g2399
ag955
ag1615
ag3318
ag2795
ag928
ag3759
ag1696
ag901
ag578
atp8304
Rp8305
sbsbag0
(g23
g2
Ntp8306
Rp8307
(dp8308
g6
g0
(g7
g2
Ntp8309
Rp8310
(dp8311
g11
g0
(g12
g13
(lp8312
g1381
ag1345
ag928
ag93
atp8313
Rp8314
sbsbag0
(g23
g2
Ntp8315
Rp8316
(dp8317
g6
g0
(g7
g2
Ntp8318
Rp8319
(dp8320
g11
g0
(g12
g13
(lp8321
g237
ag1009
ag2030
ag0
(g31
g2
Ntp8322
Rp8323
(dp8324
g6
g0
(g7
g2
Ntp8325
Rp8326
(dp8327
g11
g0
(g12
g13
(lp8328
g273
ag81
ag206
ag81
ag206
ag187
ag100
ag120
ag61
atp8329
Rp8330
sbsbag3183
ag1363
ag946
ag405
ag2030
atp8331
Rp8332
sbsbag0
(g23
g2
Ntp8333
Rp8334
(dp8335
g6
g0
(g7
g2
Ntp8336
Rp8337
(dp8338
g11
g0
(g12
g13
(lp8339
g1109
ag3399
ag304
ag2075
ag161
ag1624
atp8340
Rp8341
sbsbatp8342
Rp8343
sbsbag0
(g15
g2
Ntp8344
Rp8345
(dp8346
g6
g0
(g7
g2
Ntp8347
Rp8348
(dp8349
g11
g0
(g12
g13
(lp8350
g0
(g23
g2
Ntp8351
Rp8352
(dp8353
g6
g0
(g7
g2
Ntp8354
Rp8355
(dp8356
g11
g0
(g12
g13
(lp8357
g237
ag1696
ag854
ag199
atp8358
Rp8359
sbsbag0
(g23
g2
Ntp8360
Rp8361
(dp8362
g6
g0
(g7
g2
Ntp8363
Rp8364
(dp8365
g11
g0
(g12
g13
(lp8366
g735
ag1823
ag322
ag8323
ag414
ag836
ag4047
ag1173
ag2678
atp8367
Rp8368
sbsbag0
(g23
g2
Ntp8369
Rp8370
(dp8371
g6
g0
(g7
g2
Ntp8372
Rp8373
(dp8374
g11
g0
(g12
g13
(lp8375
g3570
ag2093
ag322
ag161
ag2678
ag1669
ag3183
ag928
ag161
ag982
atp8376
Rp8377
sbsbag0
(g23
g2
Ntp8378
Rp8379
(dp8380
g6
g0
(g7
g2
Ntp8381
Rp8382
(dp8383
g11
g0
(g12
g13
(lp8384
g973
ag2174
ag199
ag818
ag1209
ag2174
atp8385
Rp8386
sbsbag0
(g23
g2
Ntp8387
Rp8388
(dp8389
g6
g0
(g7
g2
Ntp8390
Rp8391
(dp8392
g11
g0
(g12
g13
(lp8393
g1453
ag1823
ag1254
ag4677
ag560
ag1082
ag1336
ag2516
ag487
ag496
atp8394
Rp8395
sbsbag0
(g23
g2
Ntp8396
Rp8397
(dp8398
g6
g0
(g7
g2
Ntp8399
Rp8400
(dp8401
g11
g0
(g12
g13
(lp8402
g1904
ag161
ag2750
ag322
atp8403
Rp8404
sbsbag0
(g23
g2
Ntp8405
Rp8406
(dp8407
g6
g0
(g7
g2
Ntp8408
Rp8409
(dp8410
g11
g0
(g12
g13
(lp8411
g1588
ag772
ag1137
ag772
ag910
ag1027
ag1543
ag331
ag2093
ag2417
atp8412
Rp8413
sbsbag0
(g23
g2
Ntp8414
Rp8415
(dp8416
g6
g0
(g7
g2
Ntp8417
Rp8418
(dp8419
g11
g0
(g12
g13
(lp8420
g1054
ag1082
ag1408
ag4677
ag1462
ag1073
ag662
ag1146
ag1209
atp8421
Rp8422
sbsbag0
(g23
g2
Ntp8423
Rp8424
(dp8425
g6
g0
(g7
g2
Ntp8426
Rp8427
(dp8428
g11
g0
(g12
g13
(lp8429
g1453
ag304
ag505
ag1137
atp8430
Rp8431
sbsbag0
(g23
g2
Ntp8432
Rp8433
(dp8434
g6
g0
(g7
g2
Ntp8435
Rp8436
(dp8437
g11
g0
(g12
g13
(lp8438
g680
ag772
ag423
ag2408
ag322
ag3399
ag3048
ag331
ag487
ag496
ag2075
atp8439
Rp8440
sbsbag0
(g23
g2
Ntp8441
Rp8442
(dp8443
g6
g0
(g7
g2
Ntp8444
Rp8445
(dp8446
g11
g0
(g12
g13
(lp8447
g1109
ag2516
ag3795
ag1137
ag161
ag2750
atp8448
Rp8449
sbsbag0
(g23
g2
Ntp8450
Rp8451
(dp8452
g6
g0
(g7
g2
Ntp8453
Rp8454
(dp8455
g11
g0
(g12
g13
(lp8456
g624
ag2093
ag1082
ag2003
ag161
ag754
ag982
atp8457
Rp8458
sbsbag0
(g23
g2
Ntp8459
Rp8460
(dp8461
g6
g0
(g7
g2
Ntp8462
Rp8463
(dp8464
g11
g0
(g12
g13
(lp8465
g450
ag1480
ag161
ag955
ag432
ag1345
atp8466
Rp8467
sbsbag0
(g23
g2
Ntp8468
Rp8469
(dp8470
g6
g0
(g7
g2
Ntp8471
Rp8472
(dp8473
g11
g0
(g12
g13
(lp8474
g1109
ag304
ag3039
ag4542
ag1462
ag1543
ag1741
atp8475
Rp8476
sbsbag0
(g23
g2
Ntp8477
Rp8478
(dp8479
g6
g0
(g7
g2
Ntp8480
Rp8481
(dp8482
g11
g0
(g12
g13
(lp8483
g1525
ag331
ag596
ag901
ag2678
ag3111
ag1750
atp8484
Rp8485
sbsbag0
(g23
g2
Ntp8486
Rp8487
(dp8488
g6
g0
(g7
g2
Ntp8489
Rp8490
(dp8491
g11
g0
(g12
g13
(lp8492
g3570
ag432
ag1082
ag423
ag199
ag1633
atp8493
Rp8494
sbsbatp8495
Rp8496
sbsbag0
(g15
g2
Ntp8497
Rp8498
(dp8499
g6
g0
(g7
g2
Ntp8500
Rp8501
(dp8502
g11
g0
(g12
g13
(lp8503
g0
(g23
g2
Ntp8504
Rp8505
(dp8506
g6
g0
(g7
g2
Ntp8507
Rp8508
(dp8509
g11
g0
(g12
g13
(lp8510
g349
ag331
ag1732
ag1714
atp8511
Rp8512
sbsbag0
(g23
g2
Ntp8513
Rp8514
(dp8515
g6
g0
(g7
g2
Ntp8516
Rp8517
(dp8518
g11
g0
(g12
g13
(lp8519
g1054
ag1471
ag1091
ag2525
atp8520
Rp8521
sbsbag2131
ag0
(g23
g2
Ntp8522
Rp8523
(dp8524
g6
g0
(g7
g2
Ntp8525
Rp8526
(dp8527
g11
g0
(g12
g13
(lp8528
g1453
ag772
ag717
ag587
ag910
ag1633
ag2687
ag560
ag1209
ag937
atp8529
Rp8530
sbsbag0
(g23
g2
Ntp8531
Rp8532
(dp8533
g6
g0
(g7
g2
Ntp8534
Rp8535
(dp8536
g11
g0
(g12
g13
(lp8537
g3075
ag3885
ag2732
ag1209
ag1480
ag4731
ag717
ag2651
ag1669
ag8233
ag2408
ag2192
ag1263
ag836
ag331
ag423
atp8538
Rp8539
sbsbag0
(g23
g2
Ntp8540
Rp8541
(dp8542
g6
g0
(g7
g2
Ntp8543
Rp8544
(dp8545
g11
g0
(g12
g13
(lp8546
g1054
ag1994
ag1868
ag6244
ag901
ag1082
ag1164
ag845
ag901
atp8547
Rp8548
sbsbag0
(g23
g2
Ntp8549
Rp8550
(dp8551
g6
g0
(g7
g2
Ntp8552
Rp8553
(dp8554
g11
g0
(g12
g13
(lp8555
g4254
ag1146
ag1146
ag4290
ag772
ag3183
ag533
ag1345
ag93
atp8556
Rp8557
sbsbag0
(g23
g2
Ntp8558
Rp8559
(dp8560
g6
g0
(g7
g2
Ntp8561
Rp8562
(dp8563
g11
g0
(g12
g13
(lp8564
g237
ag1091
ag1750
ag1777
ag772
ag256
atp8565
Rp8566
sbsbag0
(g23
g2
Ntp8567
Rp8568
(dp8569
g6
g0
(g7
g2
Ntp8570
Rp8571
(dp8572
g11
g0
(g12
g13
(lp8573
g1525
ag1741
ag4929
ag432
ag3048
ag2516
ag3273
ag1570
ag901
ag377
atp8574
Rp8575
sbsbatp8576
Rp8577
sbsbag0
(g15
g2
Ntp8578
Rp8579
(dp8580
g6
g0
(g7
g2
Ntp8581
Rp8582
(dp8583
g11
g0
(g12
g13
(lp8584
g0
(g23
g2
Ntp8585
Rp8586
(dp8587
g6
g0
(g7
g2
Ntp8588
Rp8589
(dp8590
g11
g0
(g12
g13
(lp8591
g3075
ag827
ag1669
ag4929
ag901
ag2516
ag1263
atp8592
Rp8593
sbsbag0
(g23
g2
Ntp8594
Rp8595
(dp8596
g6
g0
(g7
g2
Ntp8597
Rp8598
(dp8599
g11
g0
(g12
g13
(lp8600
g2399
ag1705
ag2795
ag533
atp8601
Rp8602
sbsbag0
(g23
g2
Ntp8603
Rp8604
(dp8605
g6
g0
(g7
g2
Ntp8606
Rp8607
(dp8608
g11
g0
(g12
g13
(lp8609
g1804
ag2093
ag3930
ag3138
ag1462
ag1073
ag982
atp8610
Rp8611
sbsbag0
(g23
g2
Ntp8612
Rp8613
(dp8614
g6
g0
(g7
g2
Ntp8615
Rp8616
(dp8617
g11
g0
(g12
g13
(lp8618
g2453
ag772
ag708
ag4317
ag560
ag854
ag2075
atp8619
Rp8620
sbsbag0
(g23
g2
Ntp8621
Rp8622
(dp8623
g6
g0
(g7
g2
Ntp8624
Rp8625
(dp8626
g11
g0
(g12
g13
(lp8627
g3075
ag4695
ag1408
ag304
ag93
ag4488
ag142
ag1408
ag1191
ag3957
ag2093
ag199
ag818
ag2732
ag1705
ag1263
atp8628
Rp8629
sbsbag0
(g23
g2
Ntp8630
Rp8631
(dp8632
g6
g0
(g7
g2
Ntp8633
Rp8634
(dp8635
g11
g0
(g12
g13
(lp8636
g237
ag560
ag1841
ag1327
ag781
ag1408
ag5317
ag3039
ag1741
atp8637
Rp8638
sbsbag0
(g23
g2
Ntp8639
Rp8640
(dp8641
g6
g0
(g7
g2
Ntp8642
Rp8643
(dp8644
g11
g0
(g12
g13
(lp8645
g680
ag854
ag1940
ag3426
ag2408
ag1868
ag2075
ag3111
ag1462
atp8646
Rp8647
sbsbag2833
ag0
(g23
g2
Ntp8648
Rp8649
(dp8650
g6
g0
(g7
g2
Ntp8651
Rp8652
(dp8653
g11
g0
(g12
g13
(lp8654
g1299
ag1786
ag2417
ag587
ag928
ag1543
atp8655
Rp8656
sbsbag0
(g23
g2
Ntp8657
Rp8658
(dp8659
g6
g0
(g7
g2
Ntp8660
Rp8661
(dp8662
g11
g0
(g12
g13
(lp8663
g3570
ag3930
ag1714
ag0
(g31
g2
Ntp8664
Rp8665
(dp8666
g6
g0
(g7
g2
Ntp8667
Rp8668
(dp8669
g11
g0
(g12
g13
(lp8670
g650
ag81
ag292
ag120
ag61
atp8671
Rp8672
sbsbag304
ag1886
ag2732
ag3021
ag1009
atp8673
Rp8674
sbsbag0
(g23
g2
Ntp8675
Rp8676
(dp8677
g6
g0
(g7
g2
Ntp8678
Rp8679
(dp8680
g11
g0
(g12
g13
(lp8681
g1453
ag845
ag533
ag901
ag1281
ag6739
ag542
ag1750
ag937
ag256
atp8682
Rp8683
sbsbag0
(g23
g2
Ntp8684
Rp8685
(dp8686
g6
g0
(g7
g2
Ntp8687
Rp8688
(dp8689
g11
g0
(g12
g13
(lp8690
g1768
ag161
ag569
ag1705
ag533
ag1994
ag3183
atp8691
Rp8692
sbsbag0
(g23
g2
Ntp8693
Rp8694
(dp8695
g6
g0
(g7
g2
Ntp8696
Rp8697
(dp8698
g11
g0
(g12
g13
(lp8699
g1804
ag414
ag142
ag3138
ag304
ag1786
ag2678
ag3993
ag560
atp8700
Rp8701
sbsbag0
(g23
g2
Ntp8702
Rp8703
(dp8704
g6
g0
(g7
g2
Ntp8705
Rp8706
(dp8707
g11
g0
(g12
g13
(lp8708
g1453
ag1091
ag1462
ag2651
ag161
ag368
atp8709
Rp8710
sbsbatp8711
Rp8712
sbsbag0
(g15
g2
Ntp8713
Rp8714
(dp8715
g6
g0
(g7
g2
Ntp8716
Rp8717
(dp8718
g11
g0
(g12
g13
(lp8719
g0
(g23
g2
Ntp8720
Rp8721
(dp8722
g6
g0
(g7
g2
Ntp8723
Rp8724
(dp8725
g11
g0
(g12
g13
(lp8726
g1904
ag405
ag1263
ag2408
ag836
ag2624
ag1091
atp8727
Rp8728
sbsbag0
(g23
g2
Ntp8729
Rp8730
(dp8731
g6
g0
(g7
g2
Ntp8732
Rp8733
(dp8734
g11
g0
(g12
g13
(lp8735
g1525
ag1009
ag533
ag4803
ag1191
ag322
ag3894
ag845
ag763
atp8736
Rp8737
sbsbag0
(g23
g2
Ntp8738
Rp8739
(dp8740
g6
g0
(g7
g2
Ntp8741
Rp8742
(dp8743
g11
g0
(g12
g13
(lp8744
g1804
ag560
ag478
ag1155
ag1786
ag763
ag3273
ag3111
ag1236
atp8745
Rp8746
sbsbag0
(g23
g2
Ntp8747
Rp8748
(dp8749
g6
g0
(g7
g2
Ntp8750
Rp8751
(dp8752
g11
g0
(g12
g13
(lp8753
g1453
ag304
ag3399
ag533
atp8754
Rp8755
sbsbag0
(g23
g2
Ntp8756
Rp8757
(dp8758
g6
g0
(g7
g2
Ntp8759
Rp8760
(dp8761
g11
g0
(g12
g13
(lp8762
g1054
ag2804
ag3399
ag5578
ag487
ag496
ag405
ag596
ag405
ag304
atp8763
Rp8764
sbsbag0
(g23
g2
Ntp8765
Rp8766
(dp8767
g6
g0
(g7
g2
Ntp8768
Rp8769
(dp8770
g11
g0
(g12
g13
(lp8771
g1904
ag4488
ag1281
ag2804
ag505
ag1327
ag2651
ag2075
ag2381
ag8665
ag560
ag3048
ag1841
ag982
ag161
ag1714
atp8772
Rp8773
sbsbag0
(g23
g2
Ntp8774
Rp8775
(dp8776
g6
g0
(g7
g2
Ntp8777
Rp8778
(dp8779
g11
g0
(g12
g13
(lp8780
g1109
ag304
ag1408
ag1471
ag1218
ag1173
ag1696
atp8781
Rp8782
sbsbag0
(g23
g2
Ntp8783
Rp8784
(dp8785
g6
g0
(g7
g2
Ntp8786
Rp8787
(dp8788
g11
g0
(g12
g13
(lp8789
g882
ag304
ag478
ag1471
ag1281
ag708
ag3012
atp8790
Rp8791
sbsbag0
(g23
g2
Ntp8792
Rp8793
(dp8794
g6
g0
(g7
g2
Ntp8795
Rp8796
(dp8797
g11
g0
(g12
g13
(lp8798
g1804
ag827
ag845
ag982
atp8799
Rp8800
sbsbag0
(g23
g2
Ntp8801
Rp8802
(dp8803
g6
g0
(g7
g2
Ntp8804
Rp8805
(dp8806
g11
g0
(g12
g13
(lp8807
g33
ag405
ag3399
ag1750
atp8808
Rp8809
sbsbag0
(g23
g2
Ntp8810
Rp8811
(dp8812
g6
g0
(g7
g2
Ntp8813
Rp8814
(dp8815
g11
g0
(g12
g13
(lp8816
g2399
ag1327
ag1263
ag827
ag643
ag5236
ag662
ag818
ag505
ag8233
ag331
ag708
ag955
ag569
ag560
ag569
atp8817
Rp8818
sbsbag2203
ag0
(g23
g2
Ntp8819
Rp8820
(dp8821
g6
g0
(g7
g2
Ntp8822
Rp8823
(dp8824
g11
g0
(g12
g13
(lp8825
g2453
ag1164
ag3471
ag1994
ag161
ag1570
ag1018
ag1073
ag1471
ag569
atp8826
Rp8827
sbsbag0
(g23
g2
Ntp8828
Rp8829
(dp8830
g6
g0
(g7
g2
Ntp8831
Rp8832
(dp8833
g11
g0
(g12
g13
(lp8834
g1299
ag1254
ag1263
ag772
ag1164
ag405
ag1732
atp8835
Rp8836
sbsbag0
(g23
g2
Ntp8837
Rp8838
(dp8839
g6
g0
(g7
g2
Ntp8840
Rp8841
(dp8842
g11
g0
(g12
g13
(lp8843
g1381
ag1471
ag1000
ag142
atp8844
Rp8845
sbsbatp8846
Rp8847
sbsbag0
(g15
g2
Ntp8848
Rp8849
(dp8850
g6
g0
(g7
g2
Ntp8851
Rp8852
(dp8853
g11
g0
(g12
g13
(lp8854
g0
(g23
g2
Ntp8855
Rp8856
(dp8857
g6
g0
(g7
g2
Ntp8858
Rp8859
(dp8860
g11
g0
(g12
g13
(lp8861
g1904
ag1000
ag845
ag1868
atp8862
Rp8863
sbsbag0
(g23
g2
Ntp8864
Rp8865
(dp8866
g6
g0
(g7
g2
Ntp8867
Rp8868
(dp8869
g11
g0
(g12
g13
(lp8870
g680
ag0
(g31
g2
Ntp8871
Rp8872
(dp8873
g6
g0
(g7
g2
Ntp8874
Rp8875
(dp8876
g11
g0
(g12
g13
(lp8877
g71
ag51
ag110
ag61
ag51
ag61
atp8878
Rp8879
sbsbag763
ag827
ag1750
ag2615
ag1426
ag1363
ag643
ag2003
ag772
ag256
ag1164
ag1741
ag1705
ag910
atp8880
Rp8881
sbsbag0
(g23
g2
Ntp8882
Rp8883
(dp8884
g6
g0
(g7
g2
Ntp8885
Rp8886
(dp8887
g11
g0
(g12
g13
(lp8888
g1525
ag3111
ag2327
ag8233
ag331
ag3039
ag1164
ag2174
ag1462
atp8889
Rp8890
sbsbag4094
ag0
(g23
g2
Ntp8891
Rp8892
(dp8893
g6
g0
(g7
g2
Ntp8894
Rp8895
(dp8896
g11
g0
(g12
g13
(lp8897
g1768
ag423
ag8665
ag643
ag1462
ag1263
ag3273
ag781
ag2687
ag836
atp8898
Rp8899
sbsbag0
(g23
g2
Ntp8900
Rp8901
(dp8902
g6
g0
(g7
g2
Ntp8903
Rp8904
(dp8905
g11
g0
(g12
g13
(lp8906
g973
ag5055
ag818
ag587
ag1561
ag2633
ag818
ag1741
ag313
ag7126
ag643
ag1543
ag578
ag1336
ag901
ag1036
atp8907
Rp8908
sbsbag0
(g23
g2
Ntp8909
Rp8910
(dp8911
g6
g0
(g7
g2
Ntp8912
Rp8913
(dp8914
g11
g0
(g12
g13
(lp8915
g1859
ag1633
ag423
ag2588
ag1462
ag170
ag2030
ag1000
ag304
atp8916
Rp8917
sbsbag0
(g23
g2
Ntp8918
Rp8919
(dp8920
g6
g0
(g7
g2
Ntp8921
Rp8922
(dp8923
g11
g0
(g12
g13
(lp8924
g680
ag1091
ag1624
ag1137
ag827
ag414
atp8925
Rp8926
sbsbag0
(g23
g2
Ntp8927
Rp8928
(dp8929
g6
g0
(g7
g2
Ntp8930
Rp8931
(dp8932
g11
g0
(g12
g13
(lp8933
g3075
ag3399
ag3111
ag2786
ag1009
ag2363
ag1426
ag2795
ag560
atp8934
Rp8935
sbsbag0
(g23
g2
Ntp8936
Rp8937
(dp8938
g6
g0
(g7
g2
Ntp8939
Rp8940
(dp8941
g11
g0
(g12
g13
(lp8942
g237
ag170
ag1281
ag991
ag2408
ag1786
ag142
ag1877
ag1209
atp8943
Rp8944
sbsbag0
(g23
g2
Ntp8945
Rp8946
(dp8947
g6
g0
(g7
g2
Ntp8948
Rp8949
(dp8950
g11
g0
(g12
g13
(lp8951
g450
ag2093
ag2687
ag2678
atp8952
Rp8953
sbsbag0
(g23
g2
Ntp8954
Rp8955
(dp8956
g6
g0
(g7
g2
Ntp8957
Rp8958
(dp8959
g11
g0
(g12
g13
(lp8960
g1299
ag772
ag1200
ag560
ag1841
ag1191
ag708
atp8961
Rp8962
sbsbag0
(g23
g2
Ntp8963
Rp8964
(dp8965
g6
g0
(g7
g2
Ntp8966
Rp8967
(dp8968
g11
g0
(g12
g13
(lp8969
g882
ag1633
ag3930
ag7630
ag901
ag1823
ag1281
ag1027
ag772
atp8970
Rp8971
sbsbag0
(g23
g2
Ntp8972
Rp8973
(dp8974
g6
g0
(g7
g2
Ntp8975
Rp8976
(dp8977
g11
g0
(g12
g13
(lp8978
g237
ag1480
ag1236
ag285
ag2408
ag313
ag533
ag199
ag1705
atp8979
Rp8980
sbsbag0
(g23
g2
Ntp8981
Rp8982
(dp8983
g6
g0
(g7
g2
Ntp8984
Rp8985
(dp8986
g11
g0
(g12
g13
(lp8987
g680
ag1705
ag256
ag662
atp8988
Rp8989
sbsbag2203
atp8990
Rp8991
sbsbag0
(g15
g2
Ntp8992
Rp8993
(dp8994
g6
g0
(g7
g2
Ntp8995
Rp8996
(dp8997
g11
g0
(g12
g13
(lp8998
g0
(g23
g2
Ntp8999
Rp9000
(dp9001
g6
g0
(g7
g2
Ntp9002
Rp9003
(dp9004
g11
g0
(g12
g13
(lp9005
g2453
ag2093
ag1363
ag1940
atp9006
Rp9007
sbsbag0
(g23
g2
Ntp9008
Rp9009
(dp9010
g6
g0
(g7
g2
Ntp9011
Rp9012
(dp9013
g11
g0
(g12
g13
(lp9014
g1768
ag1345
ag478
ag2093
ag1426
ag3111
ag1732
atp9015
Rp9016
sbsbag0
(g23
g2
Ntp9017
Rp9018
(dp9019
g6
g0
(g7
g2
Ntp9020
Rp9021
(dp9022
g11
g0
(g12
g13
(lp9023
g33
ag1786
ag717
ag1705
ag818
ag643
ag2174
atp9024
Rp9025
sbsbag0
(g23
g2
Ntp9026
Rp9027
(dp9028
g6
g0
(g7
g2
Ntp9029
Rp9030
(dp9031
g11
g0
(g12
g13
(lp9032
g799
ag3930
ag1363
ag587
ag1543
ag1543
atp9033
Rp9034
sbsbag4094
ag2131
ag0
(g23
g2
Ntp9035
Rp9036
(dp9037
g6
g0
(g7
g2
Ntp9038
Rp9039
(dp9040
g11
g0
(g12
g13
(lp9041
g349
ag542
ag3489
ag1390
ag754
ag1543
atp9042
Rp9043
sbsbag0
(g23
g2
Ntp9044
Rp9045
(dp9046
g6
g0
(g7
g2
Ntp9047
Rp9048
(dp9049
g11
g0
(g12
g13
(lp9050
g2453
ag2408
ag2075
ag0
(g31
g2
Ntp9051
Rp9052
(dp9053
g6
g0
(g7
g2
Ntp9054
Rp9055
(dp9056
g11
g0
(g12
g13
(lp9057
g120
ag206
ag100
ag81
ag110
ag216
ag51
ag384
atp9058
Rp9059
sbsbag1561
ag596
ag4488
ag928
ag1036
atp9060
Rp9061
sbsbag0
(g23
g2
Ntp9062
Rp9063
(dp9064
g6
g0
(g7
g2
Ntp9065
Rp9066
(dp9067
g11
g0
(g12
g13
(lp9068
g4254
ag1471
ag763
ag2075
atp9069
Rp9070
sbsbag0
(g23
g2
Ntp9071
Rp9072
(dp9073
g6
g0
(g7
g2
Ntp9074
Rp9075
(dp9076
g11
g0
(g12
g13
(lp9077
g1299
ag2093
ag1281
ag2336
ag313
ag1036
ag4047
ag754
ag1200
atp9078
Rp9079
sbsbag0
(g23
g2
Ntp9080
Rp9081
(dp9082
g6
g0
(g7
g2
Ntp9083
Rp9084
(dp9085
g11
g0
(g12
g13
(lp9086
g735
ag1480
ag1426
ag3471
ag331
ag432
ag2651
ag1669
ag2408
atp9087
Rp9088
sbsbag0
(g23
g2
Ntp9089
Rp9090
(dp9091
g6
g0
(g7
g2
Ntp9092
Rp9093
(dp9094
g11
g0
(g12
g13
(lp9095
g3570
ag560
ag2417
ag2516
ag1940
ag1534
ag1543
atp9096
Rp9097
sbsbag0
(g23
g2
Ntp9098
Rp9099
(dp9100
g6
g0
(g7
g2
Ntp9101
Rp9102
(dp9103
g11
g0
(g12
g13
(lp9104
g2453
ag1191
ag2678
ag3453
ag1471
ag708
ag596
ag854
ag1705
atp9105
Rp9106
sbsbag0
(g23
g2
Ntp9107
Rp9108
(dp9109
g6
g0
(g7
g2
Ntp9110
Rp9111
(dp9112
g11
g0
(g12
g13
(lp9113
g349
ag560
ag2732
ag6406
ag3048
ag1390
ag3894
ag2795
ag1200
atp9114
Rp9115
sbsbag0
(g23
g2
Ntp9116
Rp9117
(dp9118
g6
g0
(g7
g2
Ntp9119
Rp9120
(dp9121
g11
g0
(g12
g13
(lp9122
g4254
ag3021
ag2075
ag772
ag1263
ag1570
ag199
atp9123
Rp9124
sbsbatp9125
Rp9126
sbsbag0
(g15
g2
Ntp9127
Rp9128
(dp9129
g6
g0
(g7
g2
Ntp9130
Rp9131
(dp9132
g11
g0
(g12
g13
(lp9133
g0
(g23
g2
Ntp9134
Rp9135
(dp9136
g6
g0
(g7
g2
Ntp9137
Rp9138
(dp9139
g11
g0
(g12
g13
(lp9140
g237
ag2093
ag256
ag396
ag331
ag505
ag2651
atp9141
Rp9142
sbsbag0
(g23
g2
Ntp9143
Rp9144
(dp9145
g6
g0
(g7
g2
Ntp9146
Rp9147
(dp9148
g11
g0
(g12
g13
(lp9149
g1054
ag1173
ag1146
ag2381
atp9150
Rp9151
sbsbag3851
ag0
(g23
g2
Ntp9152
Rp9153
(dp9154
g6
g0
(g7
g2
Ntp9155
Rp9156
(dp9157
g11
g0
(g12
g13
(lp9158
g1804
ag2363
ag423
ag1471
ag1200
ag8080
ag1471
ag2381
ag578
ag170
atp9159
Rp9160
sbsbag0
(g23
g2
Ntp9161
Rp9162
(dp9163
g6
g0
(g7
g2
Ntp9164
Rp9165
(dp9166
g11
g0
(g12
g13
(lp9167
g33
ag170
ag3012
ag396
ag2750
ag1994
ag662
atp9168
Rp9169
sbsbag0
(g23
g2
Ntp9170
Rp9171
(dp9172
g6
g0
(g7
g2
Ntp9173
Rp9174
(dp9175
g11
g0
(g12
g13
(lp9176
g1768
ag643
ag313
ag1036
ag772
ag2363
atp9177
Rp9178
sbsbag0
(g23
g2
Ntp9179
Rp9180
(dp9181
g6
g0
(g7
g2
Ntp9182
Rp9183
(dp9184
g11
g0
(g12
g13
(lp9185
g1453
ag1669
ag377
ag772
ag2678
ag414
ag1624
ag161
ag2093
ag910
atp9186
Rp9187
sbsbag0
(g23
g2
Ntp9188
Rp9189
(dp9190
g6
g0
(g7
g2
Ntp9191
Rp9192
(dp9193
g11
g0
(g12
g13
(lp9194
g1525
ag1868
ag161
ag1200
ag161
ag1543
atp9195
Rp9196
sbsbag0
(g23
g2
Ntp9197
Rp9198
(dp9199
g6
g0
(g7
g2
Ntp9200
Rp9201
(dp9202
g11
g0
(g12
g13
(lp9203
g450
ag937
ag1354
ag708
ag560
ag2174
ag1976
ag199
ag1009
ag662
atp9204
Rp9205
sbsbag0
(g23
g2
Ntp9206
Rp9207
(dp9208
g6
g0
(g7
g2
Ntp9209
Rp9210
(dp9211
g11
g0
(g12
g13
(lp9212
g1904
ag2363
ag2795
ag7630
ag827
ag1082
ag1714
atp9213
Rp9214
sbsbag0
(g23
g2
Ntp9215
Rp9216
(dp9217
g6
g0
(g7
g2
Ntp9218
Rp9219
(dp9220
g11
g0
(g12
g13
(lp9221
g1381
ag1534
ag2381
ag377
ag772
ag2363
atp9222
Rp9223
sbsbag3851
atp9224
Rp9225
sbsbag0
(g15
g2
Ntp9226
Rp9227
(dp9228
g6
g0
(g7
g2
Ntp9229
Rp9230
(dp9231
g11
g0
(g12
g13
(lp9232
g0
(g23
g2
Ntp9233
Rp9234
(dp9235
g6
g0
(g7
g2
Ntp9236
Rp9237
(dp9238
g11
g0
(g12
g13
(lp9239
g1904
ag161
ag3399
ag1841
atp9240
Rp9241
sbsbag0
(g23
g2
Ntp9242
Rp9243
(dp9244
g6
g0
(g7
g2
Ntp9245
Rp9246
(dp9247
g11
g0
(g12
g13
(lp9248
g2453
ag836
ag2786
ag2345
ag772
ag3993
ag3678
ag1732
ag2795
ag1218
atp9249
Rp9250
sbsbag2203
ag0
(g23
g2
Ntp9251
Rp9252
(dp9253
g6
g0
(g7
g2
Ntp9254
Rp9255
(dp9256
g11
g0
(g12
g13
(lp9257
g799
ag304
ag763
ag1263
atp9258
Rp9259
sbsbag0
(g23
g2
Ntp9260
Rp9261
(dp9262
g6
g0
(g7
g2
Ntp9263
Rp9264
(dp9265
g11
g0
(g12
g13
(lp9266
g349
ag256
ag1345
ag2381
atp9267
Rp9268
sbsbag0
(g23
g2
Ntp9269
Rp9270
(dp9271
g6
g0
(g7
g2
Ntp9272
Rp9273
(dp9274
g11
g0
(g12
g13
(lp9275
g4254
ag542
ag1696
ag1236
atp9276
Rp9277
sbsbag0
(g23
g2
Ntp9278
Rp9279
(dp9280
g6
g0
(g7
g2
Ntp9281
Rp9282
(dp9283
g11
g0
(g12
g13
(lp9284
g680
ag3399
ag662
ag285
ag3993
ag1696
ag1263
ag3021
ag304
atp9285
Rp9286
sbsbag0
(g23
g2
Ntp9287
Rp9288
(dp9289
g6
g0
(g7
g2
Ntp9290
Rp9291
(dp9292
g11
g0
(g12
g13
(lp9293
g799
ag3012
ag2075
ag4542
ag827
ag1868
ag763
ag1173
ag313
atp9294
Rp9295
sbsbag0
(g23
g2
Ntp9296
Rp9297
(dp9298
g6
g0
(g7
g2
Ntp9299
Rp9300
(dp9301
g11
g0
(g12
g13
(lp9302
g1859
ag1009
ag2345
ag937
atp9303
Rp9304
sbsbag0
(g23
g2
Ntp9305
Rp9306
(dp9307
g6
g0
(g7
g2
Ntp9308
Rp9309
(dp9310
g11
g0
(g12
g13
(lp9311
g1299
ag901
ag1624
ag1363
atp9312
Rp9313
sbsbag0
(g23
g2
Ntp9314
Rp9315
(dp9316
g6
g0
(g7
g2
Ntp9317
Rp9318
(dp9319
g11
g0
(g12
g13
(lp9320
g1859
ag487
ag496
ag763
ag1336
atp9321
Rp9322
sbsbag0
(g23
g2
Ntp9323
Rp9324
(dp9325
g6
g0
(g7
g2
Ntp9326
Rp9327
(dp9328
g11
g0
(g12
g13
(lp9329
g4254
ag1471
ag910
ag487
ag496
ag377
ag1543
ag2345
ag304
ag772
ag717
atp9330
Rp9331
sbsbag0
(g23
g2
Ntp9332
Rp9333
(dp9334
g6
g0
(g7
g2
Ntp9335
Rp9336
(dp9337
g11
g0
(g12
g13
(lp9338
g735
ag1009
ag505
ag955
atp9339
Rp9340
sbsbatp9341
Rp9342
sbsbag0
(g15
g2
Ntp9343
Rp9344
(dp9345
g6
g0
(g7
g2
Ntp9346
Rp9347
(dp9348
g11
g0
(g12
g13
(lp9349
g2977
ag0
(g23
g2
Ntp9350
Rp9351
(dp9352
g6
g0
(g7
g2
Ntp9353
Rp9354
(dp9355
g11
g0
(g12
g13
(lp9356
g799
ag2075
ag3354
ag542
ag560
ag2192
ag6613
ag3930
ag414
ag1336
atp9357
Rp9358
sbsbag0
(g23
g2
Ntp9359
Rp9360
(dp9361
g6
g0
(g7
g2
Ntp9362
Rp9363
(dp9364
g11
g0
(g12
g13
(lp9365
g349
ag1000
ag2651
ag2507
ag487
ag496
ag1750
ag818
ag3930
ag587
atp9366
Rp9367
sbsbag0
(g23
g2
Ntp9368
Rp9369
(dp9370
g6
g0
(g7
g2
Ntp9371
Rp9372
(dp9373
g11
g0
(g12
g13
(lp9374
g799
ag2408
ag717
ag1705
ag1940
ag313
ag1786
atp9375
Rp9376
sbsbag0
(g23
g2
Ntp9377
Rp9378
(dp9379
g6
g0
(g7
g2
Ntp9380
Rp9381
(dp9382
g11
g0
(g12
g13
(lp9383
g735
ag2804
ag1164
ag2588
ag772
ag2687
ag662
ag2750
ag2093
atp9384
Rp9385
sbsbag0
(g23
g2
Ntp9386
Rp9387
(dp9388
g6
g0
(g7
g2
Ntp9389
Rp9390
(dp9391
g11
g0
(g12
g13
(lp9392
g973
ag304
ag763
ag331
ag2678
ag1732
ag1633
ag587
ag772
ag1741
atp9393
Rp9394
sbsbag0
(g23
g2
Ntp9395
Rp9396
(dp9397
g6
g0
(g7
g2
Ntp9398
Rp9399
(dp9400
g11
g0
(g12
g13
(lp9401
g3570
ag1994
ag1191
ag662
ag2093
ag2363
atp9402
Rp9403
sbsbag0
(g23
g2
Ntp9404
Rp9405
(dp9406
g6
g0
(g7
g2
Ntp9407
Rp9408
(dp9409
g11
g0
(g12
g13
(lp9410
g680
ag1462
ag414
ag2021
ag827
ag1146
ag2417
atp9411
Rp9412
sbsbag0
(g23
g2
Ntp9413
Rp9414
(dp9415
g6
g0
(g7
g2
Ntp9416
Rp9417
(dp9418
g11
g0
(g12
g13
(lp9419
g1768
ag331
ag1073
ag1236
atp9420
Rp9421
sbsbag0
(g23
g2
Ntp9422
Rp9423
(dp9424
g6
g0
(g7
g2
Ntp9425
Rp9426
(dp9427
g11
g0
(g12
g13
(lp9428
g624
ag754
ag1191
ag717
ag161
ag3795
atp9429
Rp9430
sbsbag0
(g23
g2
Ntp9431
Rp9432
(dp9433
g6
g0
(g7
g2
Ntp9434
Rp9435
(dp9436
g11
g0
(g12
g13
(lp9437
g799
ag699
ag414
ag1750
atp9438
Rp9439
sbsbag0
(g23
g2
Ntp9440
Rp9441
(dp9442
g6
g0
(g7
g2
Ntp9443
Rp9444
(dp9445
g11
g0
(g12
g13
(lp9446
g624
ag2057
ag1200
ag2093
ag2516
ag4731
ag2525
ag569
ag1750
ag4317
ag587
ag2192
ag937
ag2417
ag827
ag717
atp9447
Rp9448
sbsbag0
(g23
g2
Ntp9449
Rp9450
(dp9451
g6
g0
(g7
g2
Ntp9452
Rp9453
(dp9454
g11
g0
(g12
g13
(lp9455
g1109
ag170
ag1036
ag1009
ag256
ag1561
atp9456
Rp9457
sbsbag2833
ag0
(g23
g2
Ntp9458
Rp9459
(dp9460
g6
g0
(g7
g2
Ntp9461
Rp9462
(dp9463
g11
g0
(g12
g13
(lp9464
g2399
ag2192
ag901
ag2525
ag161
ag313
atp9465
Rp9466
sbsbatp9467
Rp9468
sbsbag0
(g15
g2
Ntp9469
Rp9470
(dp9471
g6
g0
(g7
g2
Ntp9472
Rp9473
(dp9474
g11
g0
(g12
g13
(lp9475
g2977
ag0
(g23
g2
Ntp9476
Rp9477
(dp9478
g6
g0
(g7
g2
Ntp9479
Rp9480
(dp9481
g11
g0
(g12
g13
(lp9482
g1859
ag1082
ag1137
ag560
ag1281
ag1091
ag3399
atp9483
Rp9484
sbsbag0
(g23
g2
Ntp9485
Rp9486
(dp9487
g6
g0
(g7
g2
Ntp9488
Rp9489
(dp9490
g11
g0
(g12
g13
(lp9491
g1299
ag1723
ag818
ag1471
ag505
ag5055
ag1336
ag763
ag3318
ag8233
ag1254
ag2345
ag1841
ag910
ag1462
ag1164
atp9492
Rp9493
sbsbag0
(g23
g2
Ntp9494
Rp9495
(dp9496
g6
g0
(g7
g2
Ntp9497
Rp9498
(dp9499
g11
g0
(g12
g13
(lp9500
g4254
ag3048
ag199
ag991
ag487
ag496
ag1732
ag1408
ag542
ag199
atp9501
Rp9502
sbsbag2131
ag0
(g23
g2
Ntp9503
Rp9504
(dp9505
g6
g0
(g7
g2
Ntp9506
Rp9507
(dp9508
g11
g0
(g12
g13
(lp9509
g882
ag1462
ag3048
ag578
atp9510
Rp9511
sbsbag0
(g23
g2
Ntp9512
Rp9513
(dp9514
g6
g0
(g7
g2
Ntp9515
Rp9516
(dp9517
g11
g0
(g12
g13
(lp9518
g450
ag304
ag377
ag487
ag496
ag596
ag643
ag3012
atp9519
Rp9520
sbsbatp9521
Rp9522
sbsbag0
(g15
g2
Ntp9523
Rp9524
(dp9525
g6
g0
(g7
g2
Ntp9526
Rp9527
(dp9528
g11
g0
(g12
g13
(lp9529
g0
(g23
g2
Ntp9530
Rp9531
(dp9532
g6
g0
(g7
g2
Ntp9533
Rp9534
(dp9535
g11
g0
(g12
g13
(lp9536
g1109
ag161
ag1877
ag717
atp9537
Rp9538
sbsbag0
(g23
g2
Ntp9539
Rp9540
(dp9541
g6
g0
(g7
g2
Ntp9542
Rp9543
(dp9544
g11
g0
(g12
g13
(lp9545
g237
ag901
ag3318
ag662
atp9546
Rp9547
sbsbag0
(g23
g2
Ntp9548
Rp9549
(dp9550
g6
g0
(g7
g2
Ntp9551
Rp9552
(dp9553
g11
g0
(g12
g13
(lp9554
g973
ag3039
ag662
ag1471
ag1263
ag199
ag368
atp9555
Rp9556
sbsbag0
(g23
g2
Ntp9557
Rp9558
(dp9559
g6
g0
(g7
g2
Ntp9560
Rp9561
(dp9562
g11
g0
(g12
g13
(lp9563
g237
ag928
ag2174
ag8665
ag827
ag1886
ag1363
atp9564
Rp9565
sbsbag0
(g23
g2
Ntp9566
Rp9567
(dp9568
g6
g0
(g7
g2
Ntp9569
Rp9570
(dp9571
g11
g0
(g12
g13
(lp9572
g4254
ag1886
ag928
ag1660
ag304
ag1254
ag1841
atp9573
Rp9574
sbsbag0
(g23
g2
Ntp9575
Rp9576
(dp9577
g6
g0
(g7
g2
Ntp9578
Rp9579
(dp9580
g11
g0
(g12
g13
(lp9581
g882
ag1146
ag1036
ag3957
ag161
ag1994
ag569
ag1146
ag560
atp9582
Rp9583
sbsbag0
(g23
g2
Ntp9584
Rp9585
(dp9586
g6
g0
(g7
g2
Ntp9587
Rp9588
(dp9589
g11
g0
(g12
g13
(lp9590
g799
ag2363
ag1696
ag478
ag487
ag496
ag1877
atp9591
Rp9592
sbsbag3851
atp9593
Rp9594
sbsbag0
(g15
g2
Ntp9595
Rp9596
(dp9597
g6
g0
(g7
g2
Ntp9598
Rp9599
(dp9600
g11
g0
(g12
g13
(lp9601
g1581
ag0
(g23
g2
Ntp9602
Rp9603
(dp9604
g6
g0
(g7
g2
Ntp9605
Rp9606
(dp9607
g11
g0
(g12
g13
(lp9608
g680
ag587
ag1200
ag643
ag910
ag854
ag93
ag161
ag1073
ag818
atp9609
Rp9610
sbsbag0
(g23
g2
Ntp9611
Rp9612
(dp9613
g6
g0
(g7
g2
Ntp9614
Rp9615
(dp9616
g11
g0
(g12
g13
(lp9617
g1109
ag1173
ag596
ag901
ag313
ag3318
atp9618
Rp9619
sbsbag0
(g23
g2
Ntp9620
Rp9621
(dp9622
g6
g0
(g7
g2
Ntp9623
Rp9624
(dp9625
g11
g0
(g12
g13
(lp9626
g799
ag2795
ag1868
ag7288
ag901
ag699
ag2732
ag1633
ag2093
atp9627
Rp9628
sbsbag0
(g23
g2
Ntp9629
Rp9630
(dp9631
g6
g0
(g7
g2
Ntp9632
Rp9633
(dp9634
g11
g0
(g12
g13
(lp9635
g237
ag1534
ag1777
ag1009
ag1345
ag3021
atp9636
Rp9637
sbsbag0
(g23
g2
Ntp9638
Rp9639
(dp9640
g6
g0
(g7
g2
Ntp9641
Rp9642
(dp9643
g11
g0
(g12
g13
(lp9644
g2453
ag827
ag377
ag322
atp9645
Rp9646
sbsbag0
(g23
g2
Ntp9647
Rp9648
(dp9649
g6
g0
(g7
g2
Ntp9650
Rp9651
(dp9652
g11
g0
(g12
g13
(lp9653
g349
ag2381
ag1200
ag7630
ag2093
ag1254
ag1137
ag3489
ag2093
atp9654
Rp9655
sbsbatp9656
Rp9657
sbsbag0
(g15
g2
Ntp9658
Rp9659
(dp9660
g6
g0
(g7
g2
Ntp9661
Rp9662
(dp9663
g11
g0
(g12
g13
(lp9664
g0
(g23
g2
Ntp9665
Rp9666
(dp9667
g6
g0
(g7
g2
Ntp9668
Rp9669
(dp9670
g11
g0
(g12
g13
(lp9671
g349
ag331
ag2687
ag2678
atp9672
Rp9673
sbsbag0
(g23
g2
Ntp9674
Rp9675
(dp9676
g6
g0
(g7
g2
Ntp9677
Rp9678
(dp9679
g11
g0
(g12
g13
(lp9680
g680
ag3012
ag414
ag1877
atp9681
Rp9682
sbsbag0
(g23
g2
Ntp9683
Rp9684
(dp9685
g6
g0
(g7
g2
Ntp9686
Rp9687
(dp9688
g11
g0
(g12
g13
(lp9689
g882
ag2093
ag1137
ag1940
atp9690
Rp9691
sbsbag0
(g23
g2
Ntp9692
Rp9693
(dp9694
g6
g0
(g7
g2
Ntp9695
Rp9696
(dp9697
g11
g0
(g12
g13
(lp9698
g1525
ag331
ag2417
ag1218
atp9699
Rp9700
sbsbag0
(g23
g2
Ntp9701
Rp9702
(dp9703
g6
g0
(g7
g2
Ntp9704
Rp9705
(dp9706
g11
g0
(g12
g13
(lp9707
g973
ag2408
ag596
ag4731
ag699
ag578
ag1976
ag2795
ag955
atp9708
Rp9709
sbsbag0
(g23
g2
Ntp9710
Rp9711
(dp9712
g6
g0
(g7
g2
Ntp9713
Rp9714
(dp9715
g11
g0
(g12
g13
(lp9716
g1299
ag827
ag1218
ag1462
ag818
ag256
ag3039
atp9717
Rp9718
sbsbag0
(g23
g2
Ntp9719
Rp9720
(dp9721
g6
g0
(g7
g2
Ntp9722
Rp9723
(dp9724
g11
g0
(g12
g13
(lp9725
g1299
ag1480
ag1236
ag2408
ag2174
ag2363
atp9726
Rp9727
sbsbag0
(g23
g2
Ntp9728
Rp9729
(dp9730
g6
g0
(g7
g2
Ntp9731
Rp9732
(dp9733
g11
g0
(g12
g13
(lp9734
g2453
ag2363
ag2075
ag1462
ag1363
ag3723
ag587
ag928
ag578
ag3183
atp9735
Rp9736
sbsbag0
(g23
g2
Ntp9737
Rp9738
(dp9739
g6
g0
(g7
g2
Ntp9740
Rp9741
(dp9742
g11
g0
(g12
g13
(lp9743
g1525
ag901
ag1281
ag0
(g31
g2
Ntp9744
Rp9745
(dp9746
g6
g0
(g7
g2
Ntp9747
Rp9748
(dp9749
g11
g0
(g12
g13
(lp9750
g61
ag81
ag384
ag177
ag81
ag110
atp9751
Rp9752
sbsbag1561
ag1940
ag3273
ag2345
ag2732
atp9753
Rp9754
sbsbag0
(g23
g2
Ntp9755
Rp9756
(dp9757
g6
g0
(g7
g2
Ntp9758
Rp9759
(dp9760
g11
g0
(g12
g13
(lp9761
g1109
ag587
ag3048
ag2417
atp9762
Rp9763
sbsbag0
(g23
g2
Ntp9764
Rp9765
(dp9766
g6
g0
(g7
g2
Ntp9767
Rp9768
(dp9769
g11
g0
(g12
g13
(lp9770
g1525
ag2093
ag578
ag322
atp9771
Rp9772
sbsbag0
(g23
g2
Ntp9773
Rp9774
(dp9775
g6
g0
(g7
g2
Ntp9776
Rp9777
(dp9778
g11
g0
(g12
g13
(lp9779
g1453
ag1191
ag708
ag2525
ag1209
ag3039
atp9780
Rp9781
sbsbag0
(g23
g2
Ntp9782
Rp9783
(dp9784
g6
g0
(g7
g2
Ntp9785
Rp9786
(dp9787
g11
g0
(g12
g13
(lp9788
g1453
ag1245
ag818
ag2408
ag2345
ag2426
ag1841
ag1841
ag1633
ag4290
ag901
ag1786
ag578
ag569
ag1886
ag1036
atp9789
Rp9790
sbsbag0
(g23
g2
Ntp9791
Rp9792
(dp9793
g6
g0
(g7
g2
Ntp9794
Rp9795
(dp9796
g11
g0
(g12
g13
(lp9797
g2453
ag3039
ag717
ag3993
ag1281
ag1480
ag505
atp9798
Rp9799
sbsbag0
(g23
g2
Ntp9800
Rp9801
(dp9802
g6
g0
(g7
g2
Ntp9803
Rp9804
(dp9805
g11
g0
(g12
g13
(lp9806
g1054
ag1209
ag1236
ag1209
ag2651
ag199
ag405
atp9807
Rp9808
sbsbag0
(g23
g2
Ntp9809
Rp9810
(dp9811
g6
g0
(g7
g2
Ntp9812
Rp9813
(dp9814
g11
g0
(g12
g13
(lp9815
g1453
ag587
ag1408
ag331
ag1218
ag1786
ag256
atp9816
Rp9817
sbsbatp9818
Rp9819
sbsbag0
(g15
g2
Ntp9820
Rp9821
(dp9822
g6
g0
(g7
g2
Ntp9823
Rp9824
(dp9825
g11
g0
(g12
g13
(lp9826
g0
(g23
g2
Ntp9827
Rp9828
(dp9829
g6
g0
(g7
g2
Ntp9830
Rp9831
(dp9832
g11
g0
(g12
g13
(lp9833
g1904
ag304
ag699
ag1615
ag3399
ag1570
ag1390
atp9834
Rp9835
sbsbag0
(g23
g2
Ntp9836
Rp9837
(dp9838
g6
g0
(g7
g2
Ntp9839
Rp9840
(dp9841
g11
g0
(g12
g13
(lp9842
g2453
ag937
ag377
ag2489
ag827
ag643
ag322
ag2750
ag1209
ag1786
ag1191
ag5190
ag5199
ag680
ag643
ag1426
ag827
ag1868
ag1732
atp9843
Rp9844
sbsbag0
(g23
g2
Ntp9845
Rp9846
(dp9847
g6
g0
(g7
g2
Ntp9848
Rp9849
(dp9850
g11
g0
(g12
g13
(lp9851
g33
ag3930
ag142
ag331
ag423
ag1245
ag487
ag496
ag1994
ag910
ag2516
atp9852
Rp9853
sbsbag0
(g23
g2
Ntp9854
Rp9855
(dp9856
g6
g0
(g7
g2
Ntp9857
Rp9858
(dp9859
g11
g0
(g12
g13
(lp9860
g680
ag322
ag3453
ag313
ag772
ag578
ag1272
ag1345
ag199
ag1336
atp9861
Rp9862
sbsbag0
(g23
g2
Ntp9863
Rp9864
(dp9865
g6
g0
(g7
g2
Ntp9866
Rp9867
(dp9868
g11
g0
(g12
g13
(lp9869
g1299
ag2804
ag1633
ag2651
ag1462
ag3399
atp9870
Rp9871
sbsbag0
(g23
g2
Ntp9872
Rp9873
(dp9874
g6
g0
(g7
g2
Ntp9875
Rp9876
(dp9877
g11
g0
(g12
g13
(lp9878
g1804
ag2345
ag405
ag1877
atp9879
Rp9880
sbsbag0
(g23
g2
Ntp9881
Rp9882
(dp9883
g6
g0
(g7
g2
Ntp9884
Rp9885
(dp9886
g11
g0
(g12
g13
(lp9887
g1453
ag827
ag1263
ag2732
atp9888
Rp9889
sbsbag0
(g23
g2
Ntp9890
Rp9891
(dp9892
g6
g0
(g7
g2
Ntp9893
Rp9894
(dp9895
g11
g0
(g12
g13
(lp9896
g1804
ag1624
ag368
ag3426
ag901
ag1994
ag377
ag1480
ag827
atp9897
Rp9898
sbsbag0
(g23
g2
Ntp9899
Rp9900
(dp9901
g6
g0
(g7
g2
Ntp9902
Rp9903
(dp9904
g11
g0
(g12
g13
(lp9905
g1904
ag1254
ag781
ag8665
ag1009
ag1994
ag533
ag2516
ag699
atp9906
Rp9907
sbsbag0
(g23
g2
Ntp9908
Rp9909
(dp9910
g6
g0
(g7
g2
Ntp9911
Rp9912
(dp9913
g11
g0
(g12
g13
(lp9914
g450
ag1471
ag3039
ag1164
atp9915
Rp9916
sbsbag0
(g23
g2
Ntp9917
Rp9918
(dp9919
g6
g0
(g7
g2
Ntp9920
Rp9921
(dp9922
g11
g0
(g12
g13
(lp9923
g680
ag542
ag1137
ag2093
ag1036
ag514
ag901
ag2750
ag1390
ag1091
atp9924
Rp9925
sbsbag0
(g23
g2
Ntp9926
Rp9927
(dp9928
g6
g0
(g7
g2
Ntp9929
Rp9930
(dp9931
g11
g0
(g12
g13
(lp9932
g349
ag331
ag1336
ag910
atp9933
Rp9934
sbsbag0
(g23
g2
Ntp9935
Rp9936
(dp9937
g6
g0
(g7
g2
Ntp9938
Rp9939
(dp9940
g11
g0
(g12
g13
(lp9941
g1588
ag2075
ag4929
ag3930
ag304
ag1877
ag1678
ag1561
ag1209
ag2651
atp9942
Rp9943
sbsbatp9944
Rp9945
sbsbag0
(g15
g2
Ntp9946
Rp9947
(dp9948
g6
g0
(g7
g2
Ntp9949
Rp9950
(dp9951
g11
g0
(g12
g13
(lp9952
g0
(g23
g2
Ntp9953
Rp9954
(dp9955
g6
g0
(g7
g2
Ntp9956
Rp9957
(dp9958
g11
g0
(g12
g13
(lp9959
g799
ag1191
ag2408
ag818
ag1462
ag2327
atp9960
Rp9961
sbsbag0
(g23
g2
Ntp9962
Rp9963
(dp9964
g6
g0
(g7
g2
Ntp9965
Rp9966
(dp9967
g11
g0
(g12
g13
(lp9968
g1588
ag1624
ag1714
ag1462
ag1336
ag93
ag3021
atp9969
Rp9970
sbsbag0
(g23
g2
Ntp9971
Rp9972
(dp9973
g6
g0
(g7
g2
Ntp9974
Rp9975
(dp9976
g11
g0
(g12
g13
(lp9977
g1453
ag1570
ag763
ag560
ag93
ag414
atp9978
Rp9979
sbsbag0
(g23
g2
Ntp9980
Rp9981
(dp9982
g6
g0
(g7
g2
Ntp9983
Rp9984
(dp9985
g11
g0
(g12
g13
(lp9986
g1859
ag1073
ag1137
ag1462
ag1200
ag2192
ag2381
atp9987
Rp9988
sbsbag0
(g23
g2
Ntp9989
Rp9990
(dp9991
g6
g0
(g7
g2
Ntp9992
Rp9993
(dp9994
g11
g0
(g12
g13
(lp9995
g1525
ag1254
ag2732
ag3354
ag161
ag313
ag322
ag2174
ag304
atp9996
Rp9997
sbsbag0
(g23
g2
Ntp9998
Rp9999
(dp10000
g6
g0
(g7
g2
Ntp10001
Rp10002
(dp10003
g11
g0
(g12
g13
(lp10004
g882
ag1209
ag1236
ag4812
ag1027
ag1164
ag3678
ag1696
ag818
atp10005
Rp10006
sbsbag0
(g23
g2
Ntp10007
Rp10008
(dp10009
g6
g0
(g7
g2
Ntp10010
Rp10011
(dp10012
g11
g0
(g12
g13
(lp10013
g1525
ag827
ag1091
ag1336
atp10014
Rp10015
sbsbag0
(g23
g2
Ntp10016
Rp10017
(dp10018
g6
g0
(g7
g2
Ntp10019
Rp10020
(dp10021
g11
g0
(g12
g13
(lp10022
g882
ag560
ag93
ag6487
ag827
ag1534
ag1200
atp10023
Rp10024
sbsbag2977
ag0
(g23
g2
Ntp10025
Rp10026
(dp10027
g6
g0
(g7
g2
Ntp10028
Rp10029
(dp10030
g11
g0
(g12
g13
(lp10031
g735
ag1146
ag1732
ag662
ag331
ag1173
atp10032
Rp10033
sbsbag0
(g23
g2
Ntp10034
Rp10035
(dp10036
g6
g0
(g7
g2
Ntp10037
Rp10038
(dp10039
g11
g0
(g12
g13
(lp10040
g2399
ag3489
ag1696
ag2732
ag587
ag3183
atp10041
Rp10042
sbsbag0
(g23
g2
Ntp10043
Rp10044
(dp10045
g6
g0
(g7
g2
Ntp10046
Rp10047
(dp10048
g11
g0
(g12
g13
(lp10049
g1588
ag3489
ag1263
ag4083
ag1209
ag854
ag910
ag3021
ag1462
atp10050
Rp10051
sbsbag0
(g23
g2
Ntp10052
Rp10053
(dp10054
g6
g0
(g7
g2
Ntp10055
Rp10056
(dp10057
g11
g0
(g12
g13
(lp10058
g973
ag487
ag496
ag1036
ag6460
ag3048
ag1164
ag6613
ag3183
ag2030
atp10059
Rp10060
sbsbag0
(g23
g2
Ntp10061
Rp10062
(dp10063
g6
g0
(g7
g2
Ntp10064
Rp10065
(dp10066
g11
g0
(g12
g13
(lp10067
g799
ag1777
ag1354
ag414
ag1209
ag1218
ag3678
ag1561
ag1696
ag818
atp10068
Rp10069
sbsbag0
(g23
g2
Ntp10070
Rp10071
(dp10072
g6
g0
(g7
g2
Ntp10073
Rp10074
(dp10075
g11
g0
(g12
g13
(lp10076
g1299
ag304
ag1137
ag2732
atp10077
Rp10078
sbsbag0
(g23
g2
Ntp10079
Rp10080
(dp10081
g6
g0
(g7
g2
Ntp10082
Rp10083
(dp10084
g11
g0
(g12
g13
(lp10085
g680
ag1027
ag2795
ag2687
atp10086
Rp10087
sbsbatp10088
Rp10089
sbsbag0
(g15
g2
Ntp10090
Rp10091
(dp10092
g6
g0
(g7
g2
Ntp10093
Rp10094
(dp10095
g11
g0
(g12
g13
(lp10096
g0
(g23
g2
Ntp10097
Rp10098
(dp10099
g6
g0
(g7
g2
Ntp10100
Rp10101
(dp10102
g11
g0
(g12
g13
(lp10103
g1381
ag2525
ag2507
ag2516
ag487
ag496
ag2651
ag6613
ag2516
ag2345
ag2525
atp10104
Rp10105
sbsbag0
(g23
g2
Ntp10106
Rp10107
(dp10108
g6
g0
(g7
g2
Ntp10109
Rp10110
(dp10111
g11
g0
(g12
g13
(lp10112
g1804
ag772
ag1786
ag569
atp10113
Rp10114
sbsbag0
(g23
g2
Ntp10115
Rp10116
(dp10117
g6
g0
(g7
g2
Ntp10118
Rp10119
(dp10120
g11
g0
(g12
g13
(lp10121
g1525
ag560
ag1091
ag578
atp10122
Rp10123
sbsbag0
(g23
g2
Ntp10124
Rp10125
(dp10126
g6
g0
(g7
g2
Ntp10127
Rp10128
(dp10129
g11
g0
(g12
g13
(lp10130
g680
ag2093
ag1236
ag3237
ag2795
ag478
ag1018
ag1633
ag1164
atp10131
Rp10132
sbsbag0
(g23
g2
Ntp10133
Rp10134
(dp10135
g6
g0
(g7
g2
Ntp10136
Rp10137
(dp10138
g11
g0
(g12
g13
(lp10139
g799
ag1390
ag4083
ag1146
ag587
ag1750
ag1018
ag1886
ag3795
ag1218
atp10140
Rp10141
sbsbag0
(g23
g2
Ntp10142
Rp10143
(dp10144
g6
g0
(g7
g2
Ntp10145
Rp10146
(dp10147
g11
g0
(g12
g13
(lp10148
g1525
ag1705
ag2345
ag937
atp10149
Rp10150
sbsbag0
(g23
g2
Ntp10151
Rp10152
(dp10153
g6
g0
(g7
g2
Ntp10154
Rp10155
(dp10156
g11
g0
(g12
g13
(lp10157
g1054
ag1209
ag836
ag1462
ag1741
ag708
ag3489
atp10158
Rp10159
sbsbag0
(g23
g2
Ntp10160
Rp10161
(dp10162
g6
g0
(g7
g2
Ntp10163
Rp10164
(dp10165
g11
g0
(g12
g13
(lp10166
g2399
ag1823
ag3399
ag199
atp10167
Rp10168
sbsbag0
(g23
g2
Ntp10169
Rp10170
(dp10171
g6
g0
(g7
g2
Ntp10172
Rp10173
(dp10174
g11
g0
(g12
g13
(lp10175
g33
ag368
ag1036
ag331
ag1868
ag1750
atp10176
Rp10177
sbsbatp10178
Rp10179
sbsbag0
(g15
g2
Ntp10180
Rp10181
(dp10182
g6
g0
(g7
g2
Ntp10183
Rp10184
(dp10185
g11
g0
(g12
g13
(lp10186
g3851
ag0
(g23
g2
Ntp10187
Rp10188
(dp10189
g6
g0
(g7
g2
Ntp10190
Rp10191
(dp10192
g11
g0
(g12
g13
(lp10193
g882
ag1561
ag1009
ag596
ag304
ag256
atp10194
Rp10195
sbsbag0
(g23
g2
Ntp10196
Rp10197
(dp10198
g6
g0
(g7
g2
Ntp10199
Rp10200
(dp10201
g11
g0
(g12
g13
(lp10202
g735
ag1009
ag199
ag1660
ag1462
ag1543
ag423
atp10203
Rp10204
sbsbag0
(g23
g2
Ntp10205
Rp10206
(dp10207
g6
g0
(g7
g2
Ntp10208
Rp10209
(dp10210
g11
g0
(g12
g13
(lp10211
g450
ag1009
ag142
ag1263
atp10212
Rp10213
sbsbag0
(g23
g2
Ntp10214
Rp10215
(dp10216
g6
g0
(g7
g2
Ntp10217
Rp10218
(dp10219
g11
g0
(g12
g13
(lp10220
g3075
ag2795
ag1741
ag3408
ag2516
ag2192
ag836
ag928
ag2093
atp10221
Rp10222
sbsbag0
(g23
g2
Ntp10223
Rp10224
(dp10225
g6
g0
(g7
g2
Ntp10226
Rp10227
(dp10228
g11
g0
(g12
g13
(lp10229
g4254
ag1741
ag4677
ag2750
ag772
ag1841
ag946
ag1082
ag1868
ag142
atp10230
Rp10231
sbsbag0
(g23
g2
Ntp10232
Rp10233
(dp10234
g6
g0
(g7
g2
Ntp10235
Rp10236
(dp10237
g11
g0
(g12
g13
(lp10238
g1859
ag304
ag199
ag3957
ag331
ag1082
ag937
atp10239
Rp10240
sbsbag0
(g23
g2
Ntp10241
Rp10242
(dp10243
g6
g0
(g7
g2
Ntp10244
Rp10245
(dp10246
g11
g0
(g12
g13
(lp10247
g680
ag1209
ag405
ag937
atp10248
Rp10249
sbsbag0
(g23
g2
Ntp10250
Rp10251
(dp10252
g6
g0
(g7
g2
Ntp10253
Rp10254
(dp10255
g11
g0
(g12
g13
(lp10256
g349
ag1669
ag1994
ag1660
ag1462
ag1994
ag1940
ag643
ag1009
atp10257
Rp10258
sbsbag0
(g23
g2
Ntp10259
Rp10260
(dp10261
g6
g0
(g7
g2
Ntp10262
Rp10263
(dp10264
g11
g0
(g12
g13
(lp10265
g1453
ag901
ag1561
ag1841
atp10266
Rp10267
sbsbag0
(g23
g2
Ntp10268
Rp10269
(dp10270
g6
g0
(g7
g2
Ntp10271
Rp10272
(dp10273
g11
g0
(g12
g13
(lp10274
g1453
ag587
ag3021
ag1236
atp10275
Rp10276
sbsbag0
(g23
g2
Ntp10277
Rp10278
(dp10279
g6
g0
(g7
g2
Ntp10280
Rp10281
(dp10282
g11
g0
(g12
g13
(lp10283
g735
ag1000
ag1336
ag304
ag377
ag1327
ag487
ag496
ag1543
ag2678
ag1073
atp10284
Rp10285
sbsbag0
(g23
g2
Ntp10286
Rp10287
(dp10288
g6
g0
(g7
g2
Ntp10289
Rp10290
(dp10291
g11
g0
(g12
g13
(lp10292
g33
ag505
ag3012
ag662
atp10293
Rp10294
sbsbag0
(g23
g2
Ntp10295
Rp10296
(dp10297
g6
g0
(g7
g2
Ntp10298
Rp10299
(dp10300
g11
g0
(g12
g13
(lp10301
g4254
ag2678
ag2588
ag1823
ag2408
ag1940
ag6046
ag199
ag1732
ag322
atp10302
Rp10303
sbsbag0
(g23
g2
Ntp10304
Rp10305
(dp10306
g6
g0
(g7
g2
Ntp10307
Rp10308
(dp10309
g11
g0
(g12
g13
(lp10310
g1768
ag1209
ag2417
ag1777
atp10311
Rp10312
sbsbag4094
atp10313
Rp10314
sbsbag0
(g15
g2
Ntp10315
Rp10316
(dp10317
g6
g0
(g7
g2
Ntp10318
Rp10319
(dp10320
g11
g0
(g12
g13
(lp10321
g0
(g23
g2
Ntp10322
Rp10323
(dp10324
g6
g0
(g7
g2
Ntp10325
Rp10326
(dp10327
g11
g0
(g12
g13
(lp10328
g33
ag901
ag2732
ag1408
atp10329
Rp10330
sbsbag0
(g23
g2
Ntp10331
Rp10332
(dp10333
g6
g0
(g7
g2
Ntp10334
Rp10335
(dp10336
g11
g0
(g12
g13
(lp10337
g1859
ag1137
ag551
ag1750
ag1173
ag142
ag946
ag845
ag854
ag1841
atp10338
Rp10339
sbsbag0
(g23
g2
Ntp10340
Rp10341
(dp10342
g6
g0
(g7
g2
Ntp10343
Rp10344
(dp10345
g11
g0
(g12
g13
(lp10346
g1381
ag432
ag910
ag1462
ag578
ag2624
ag1561
atp10347
Rp10348
sbsbag0
(g23
g2
Ntp10349
Rp10350
(dp10351
g6
g0
(g7
g2
Ntp10352
Rp10353
(dp10354
g11
g0
(g12
g13
(lp10355
g237
ag1940
ag1615
ag2345
ag587
ag505
ag5317
ag3795
ag2093
ag1164
atp10356
Rp10357
sbsbag0
(g23
g2
Ntp10358
Rp10359
(dp10360
g6
g0
(g7
g2
Ntp10361
Rp10362
(dp10363
g11
g0
(g12
g13
(lp10364
g1299
ag560
ag1994
ag955
atp10365
Rp10366
sbsbag0
(g23
g2
Ntp10367
Rp10368
(dp10369
g6
g0
(g7
g2
Ntp10370
Rp10371
(dp10372
g11
g0
(g12
g13
(lp10373
g735
ag587
ag1263
ag569
atp10374
Rp10375
sbsbag0
(g23
g2
Ntp10376
Rp10377
(dp10378
g6
g0
(g7
g2
Ntp10379
Rp10380
(dp10381
g11
g0
(g12
g13
(lp10382
g624
ag3264
ag1777
ag587
ag1082
ag0
(g31
g2
Ntp10383
Rp10384
(dp10385
g6
g0
(g7
g2
Ntp10386
Rp10387
(dp10388
g11
g0
(g12
g13
(lp10389
g51
ag292
ag100
ag110
ag120
ag71
ag81
ag61
atp10390
Rp10391
sbsbag596
ag717
ag1823
ag7288
ag487
ag496
ag170
ag836
ag2525
ag1462
ag1336
atp10392
Rp10393
sbsbag0
(g23
g2
Ntp10394
Rp10395
(dp10396
g6
g0
(g7
g2
Ntp10397
Rp10398
(dp10399
g11
g0
(g12
g13
(lp10400
g349
ag2516
ag1036
ag161
ag3048
ag2327
atp10401
Rp10402
sbsbag0
(g23
g2
Ntp10403
Rp10404
(dp10405
g6
g0
(g7
g2
Ntp10406
Rp10407
(dp10408
g11
g0
(g12
g13
(lp10409
g237
ag2516
ag1191
ag836
ag2408
ag2750
atp10410
Rp10411
sbsbag2131
ag0
(g23
g2
Ntp10412
Rp10413
(dp10414
g6
g0
(g7
g2
Ntp10415
Rp10416
(dp10417
g11
g0
(g12
g13
(lp10418
g349
ag1036
ag6487
ag199
ag1696
ag2678
ag3093
ag542
ag3012
ag1714
atp10419
Rp10420
sbsbag0
(g23
g2
Ntp10421
Rp10422
(dp10423
g6
g0
(g7
g2
Ntp10424
Rp10425
(dp10426
g11
g0
(g12
g13
(lp10427
g4254
ag1218
ag1660
ag3183
ag1209
ag1696
ag3480
ag3012
ag772
ag578
atp10428
Rp10429
sbsbag0
(g23
g2
Ntp10430
Rp10431
(dp10432
g6
g0
(g7
g2
Ntp10433
Rp10434
(dp10435
g11
g0
(g12
g13
(lp10436
g1804
ag1009
ag1363
ag1209
ag1741
ag2381
ag1877
ag772
ag901
ag1741
atp10437
Rp10438
sbsbag0
(g23
g2
Ntp10439
Rp10440
(dp10441
g6
g0
(g7
g2
Ntp10442
Rp10443
(dp10444
g11
g0
(g12
g13
(lp10445
g1588
ag487
ag496
ag1408
ag1471
ag910
ag1669
ag1786
ag1009
ag1209
ag1426
atp10446
Rp10447
sbsbatp10448
Rp10449
sbsbag0
(g15
g2
Ntp10450
Rp10451
(dp10452
g6
g0
(g7
g2
Ntp10453
Rp10454
(dp10455
g11
g0
(g12
g13
(lp10456
g0
(g23
g2
Ntp10457
Rp10458
(dp10459
g6
g0
(g7
g2
Ntp10460
Rp10461
(dp10462
g11
g0
(g12
g13
(lp10463
g799
ag2516
ag1841
ag331
ag313
ag1786
atp10464
Rp10465
sbsbag0
(g23
g2
Ntp10466
Rp10467
(dp10468
g6
g0
(g7
g2
Ntp10469
Rp10470
(dp10471
g11
g0
(g12
g13
(lp10472
g1804
ag1543
ag578
ag1462
ag1750
ag781
atp10473
Rp10474
sbsbag0
(g23
g2
Ntp10475
Rp10476
(dp10477
g6
g0
(g7
g2
Ntp10478
Rp10479
(dp10480
g11
g0
(g12
g13
(lp10481
g624
ag1471
ag1390
ag1777
atp10482
Rp10483
sbsbag0
(g23
g2
Ntp10484
Rp10485
(dp10486
g6
g0
(g7
g2
Ntp10487
Rp10488
(dp10489
g11
g0
(g12
g13
(lp10490
g3345
ag304
ag1027
ag423
atp10491
Rp10492
sbsbag0
(g23
g2
Ntp10493
Rp10494
(dp10495
g6
g0
(g7
g2
Ntp10496
Rp10497
(dp10498
g11
g0
(g12
g13
(lp10499
g3075
ag1281
ag7288
ag542
ag1009
ag1263
ag3759
ag3021
ag1073
ag910
atp10500
Rp10501
sbsbag0
(g23
g2
Ntp10502
Rp10503
(dp10504
g6
g0
(g7
g2
Ntp10505
Rp10506
(dp10507
g11
g0
(g12
g13
(lp10508
g33
ag142
ag3426
ag1146
ag2363
ag1624
ag4047
ag199
ag3993
ag1236
atp10509
Rp10510
sbsbag0
(g23
g2
Ntp10511
Rp10512
(dp10513
g6
g0
(g7
g2
Ntp10514
Rp10515
(dp10516
g11
g0
(g12
g13
(lp10517
g1804
ag1191
ag662
ag1182
ag1471
ag2345
ag377
ag928
ag827
atp10518
Rp10519
sbsbag0
(g23
g2
Ntp10520
Rp10521
(dp10522
g6
g0
(g7
g2
Ntp10523
Rp10524
(dp10525
g11
g0
(g12
g13
(lp10526
g799
ag560
ag414
ag142
atp10527
Rp10528
sbsbatp10529
Rp10530
sbsbag0
(g15
g2
Ntp10531
Rp10532
(dp10533
g6
g0
(g7
g2
Ntp10534
Rp10535
(dp10536
g11
g0
(g12
g13
(lp10537
g0
(g23
g2
Ntp10538
Rp10539
(dp10540
g6
g0
(g7
g2
Ntp10541
Rp10542
(dp10543
g11
g0
(g12
g13
(lp10544
g1588
ag414
ag3930
ag1073
atp10545
Rp10546
sbsbag0
(g23
g2
Ntp10547
Rp10548
(dp10549
g6
g0
(g7
g2
Ntp10550
Rp10551
(dp10552
g11
g0
(g12
g13
(lp10553
g882
ag1327
ag2678
ag772
ag170
ag5371
ag955
ag596
ag1480
ag7126
ag1471
ag1345
ag1036
ag1940
ag772
ag1841
atp10554
Rp10555
sbsbag0
(g23
g2
Ntp10556
Rp10557
(dp10558
g6
g0
(g7
g2
Ntp10559
Rp10560
(dp10561
g11
g0
(g12
g13
(lp10562
g1804
ag901
ag955
ag331
ag1363
ag1877
ag845
ag772
ag1705
ag1363
atp10563
Rp10564
sbsbag0
(g23
g2
Ntp10565
Rp10566
(dp10567
g6
g0
(g7
g2
Ntp10568
Rp10569
(dp10570
g11
g0
(g12
g13
(lp10571
g3570
ag1705
ag199
ag1164
atp10572
Rp10573
sbsbag0
(g23
g2
Ntp10574
Rp10575
(dp10576
g6
g0
(g7
g2
Ntp10577
Rp10578
(dp10579
g11
g0
(g12
g13
(lp10580
g1525
ag1868
ag1777
ag7288
ag2093
ag3930
ag1200
ag313
ag1705
atp10581
Rp10582
sbsbag0
(g23
g2
Ntp10583
Rp10584
(dp10585
g6
g0
(g7
g2
Ntp10586
Rp10587
(dp10588
g11
g0
(g12
g13
(lp10589
g1109
ag1561
ag827
ag478
ag901
ag1669
atp10590
Rp10591
sbsbag0
(g23
g2
Ntp10592
Rp10593
(dp10594
g6
g0
(g7
g2
Ntp10595
Rp10596
(dp10597
g11
g0
(g12
g13
(lp10598
g1299
ag161
ag763
ag1714
atp10599
Rp10600
sbsbag2473
ag0
(g23
g2
Ntp10601
Rp10602
(dp10603
g6
g0
(g7
g2
Ntp10604
Rp10605
(dp10606
g11
g0
(g12
g13
(lp10607
g1859
ag2651
ag4083
ag854
ag560
ag1036
ag4047
ag2687
ag93
ag1363
atp10608
Rp10609
sbsbag0
(g23
g2
Ntp10610
Rp10611
(dp10612
g6
g0
(g7
g2
Ntp10613
Rp10614
(dp10615
g11
g0
(g12
g13
(lp10616
g1859
ag1146
ag2345
ag1091
atp10617
Rp10618
sbsbatp10619
Rp10620
sbsbag0
(g15
g2
Ntp10621
Rp10622
(dp10623
g6
g0
(g7
g2
Ntp10624
Rp10625
(dp10626
g11
g0
(g12
g13
(lp10627
g0
(g23
g2
Ntp10628
Rp10629
(dp10630
g6
g0
(g7
g2
Ntp10631
Rp10632
(dp10633
g11
g0
(g12
g13
(lp10634
g1525
ag2336
ag2525
ag331
ag1877
ag1155
ag1714
ag423
ag256
ag4677
ag560
ag1534
ag1263
ag955
ag1462
ag937
atp10635
Rp10636
sbsbag0
(g23
g2
Ntp10637
Rp10638
(dp10639
g6
g0
(g7
g2
Ntp10640
Rp10641
(dp10642
g11
g0
(g12
g13
(lp10643
g450
ag487
ag496
ag1200
ag1462
ag2651
ag845
ag1480
atp10644
Rp10645
sbsbag2833
ag0
(g23
g2
Ntp10646
Rp10647
(dp10648
g6
g0
(g7
g2
Ntp10649
Rp10650
(dp10651
g11
g0
(g12
g13
(lp10652
g624
ag2408
ag2651
ag827
ag818
ag3183
ag3795
atp10653
Rp10654
sbsbag0
(g23
g2
Ntp10655
Rp10656
(dp10657
g6
g0
(g7
g2
Ntp10658
Rp10659
(dp10660
g11
g0
(g12
g13
(lp10661
g3345
ag901
ag1091
ag3408
ag901
ag1254
ag1390
atp10662
Rp10663
sbsbag0
(g23
g2
Ntp10664
Rp10665
(dp10666
g6
g0
(g7
g2
Ntp10667
Rp10668
(dp10669
g11
g0
(g12
g13
(lp10670
g1804
ag1480
ag1471
ag1741
ag1705
ag3012
atp10671
Rp10672
sbsbag0
(g23
g2
Ntp10673
Rp10674
(dp10675
g6
g0
(g7
g2
Ntp10676
Rp10677
(dp10678
g11
g0
(g12
g13
(lp10679
g1525
ag587
ag910
ag1471
ag1940
ag93
ag1146
atp10680
Rp10681
sbsbag0
(g23
g2
Ntp10682
Rp10683
(dp10684
g6
g0
(g7
g2
Ntp10685
Rp10686
(dp10687
g11
g0
(g12
g13
(lp10688
g973
ag3399
ag487
ag496
ag322
ag827
ag256
atp10689
Rp10690
sbsbag0
(g23
g2
Ntp10691
Rp10692
(dp10693
g6
g0
(g7
g2
Ntp10694
Rp10695
(dp10696
g11
g0
(g12
g13
(lp10697
g2453
ag1534
ag3039
ag6568
ag161
ag3489
ag533
ag1732
ag1345
atp10698
Rp10699
sbsbag0
(g23
g2
Ntp10700
Rp10701
(dp10702
g6
g0
(g7
g2
Ntp10703
Rp10704
(dp10705
g11
g0
(g12
g13
(lp10706
g1299
ag1254
ag1426
ag1009
ag1200
ag1254
ag405
atp10707
Rp10708
sbsbag0
(g23
g2
Ntp10709
Rp10710
(dp10711
g6
g0
(g7
g2
Ntp10712
Rp10713
(dp10714
g11
g0
(g12
g13
(lp10715
g1453
ag3012
ag3993
ag1877
atp10716
Rp10717
sbsbag0
(g23
g2
Ntp10718
Rp10719
(dp10720
g6
g0
(g7
g2
Ntp10721
Rp10722
(dp10723
g11
g0
(g12
g13
(lp10724
g1588
ag304
ag2345
ag982
atp10725
Rp10726
sbsbag0
(g23
g2
Ntp10727
Rp10728
(dp10729
g6
g0
(g7
g2
Ntp10730
Rp10731
(dp10732
g11
g0
(g12
g13
(lp10733
g237
ag845
ag1624
ag2030
ag1633
ag3111
atp10734
Rp10735
sbsbag0
(g23
g2
Ntp10736
Rp10737
(dp10738
g6
g0
(g7
g2
Ntp10739
Rp10740
(dp10741
g11
g0
(g12
g13
(lp10742
g680
ag3930
ag1408
ag2408
ag405
ag3795
atp10743
Rp10744
sbsbag0
(g23
g2
Ntp10745
Rp10746
(dp10747
g6
g0
(g7
g2
Ntp10748
Rp10749
(dp10750
g11
g0
(g12
g13
(lp10751
g1904
ag2093
ag1236
ag1036
atp10752
Rp10753
sbsbatp10754
Rp10755
sbsbag0
(g15
g2
Ntp10756
Rp10757
(dp10758
g6
g0
(g7
g2
Ntp10759
Rp10760
(dp10761
g11
g0
(g12
g13
(lp10762
g0
(g23
g2
Ntp10763
Rp10764
(dp10765
g6
g0
(g7
g2
Ntp10766
Rp10767
(dp10768
g11
g0
(g12
g13
(lp10769
g2453
ag937
ag377
ag2489
ag827
ag643
ag322
ag2750
ag1209
ag1786
ag1191
ag5190
ag5199
ag1768
ag4731
ag1236
ag331
ag505
ag5695
ag478
ag2417
ag1480
ag4110
ag901
ag781
ag1390
ag1714
ag772
ag533
atp10770
Rp10771
sbsbag0
(g23
g2
Ntp10772
Rp10773
(dp10774
g6
g0
(g7
g2
Ntp10775
Rp10776
(dp10777
g11
g0
(g12
g13
(lp10778
g1768
ag1786
ag1363
ag2588
ag772
ag2192
ag662
ag2516
ag827
atp10779
Rp10780
sbsbag0
(g23
g2
Ntp10781
Rp10782
(dp10783
g6
g0
(g7
g2
Ntp10784
Rp10785
(dp10786
g11
g0
(g12
g13
(lp10787
g1109
ag3183
ag142
ag1705
ag2732
ag5136
ag2093
ag199
ag1408
ag1000
atp10788
Rp10789
sbsbag0
(g23
g2
Ntp10790
Rp10791
(dp10792
g6
g0
(g7
g2
Ntp10793
Rp10794
(dp10795
g11
g0
(g12
g13
(lp10796
g3075
ag1336
ag4110
ag1173
ag772
ag414
ag6046
ag3183
ag304
ag2030
atp10797
Rp10798
sbsbag0
(g23
g2
Ntp10799
Rp10800
(dp10801
g6
g0
(g7
g2
Ntp10802
Rp10803
(dp10804
g11
g0
(g12
g13
(lp10805
g1859
ag827
ag1281
ag3885
ag781
ag1336
ag1272
ag643
ag1408
atp10806
Rp10807
sbsbag0
(g23
g2
Ntp10808
Rp10809
(dp10810
g6
g0
(g7
g2
Ntp10811
Rp10812
(dp10813
g11
g0
(g12
g13
(lp10814
g882
ag199
ag699
ag4677
ag1209
ag1345
ag1408
ag2750
ag331
atp10815
Rp10816
sbsbag0
(g23
g2
Ntp10817
Rp10818
(dp10819
g6
g0
(g7
g2
Ntp10820
Rp10821
(dp10822
g11
g0
(g12
g13
(lp10823
g1804
ag2057
ag1363
ag1462
ag1624
ag1327
ag1940
ag937
ag1994
ag3453
ag487
ag496
ag3399
ag1390
ag1390
ag772
ag1940
atp10824
Rp10825
sbsbag0
(g23
g2
Ntp10826
Rp10827
(dp10828
g6
g0
(g7
g2
Ntp10829
Rp10830
(dp10831
g11
g0
(g12
g13
(lp10832
g624
ag3930
ag763
ag587
ag1027
ag3183
atp10833
Rp10834
sbsbag0
(g23
g2
Ntp10835
Rp10836
(dp10837
g6
g0
(g7
g2
Ntp10838
Rp10839
(dp10840
g11
g0
(g12
g13
(lp10841
g3570
ag170
ag1073
ag1624
atp10842
Rp10843
sbsbag0
(g23
g2
Ntp10844
Rp10845
(dp10846
g6
g0
(g7
g2
Ntp10847
Rp10848
(dp10849
g11
g0
(g12
g13
(lp10850
g2399
ag2174
ag596
ag2093
ag322
ag4182
ag827
ag1877
ag1336
ag1543
atp10851
Rp10852
sbsbag0
(g23
g2
Ntp10853
Rp10854
(dp10855
g6
g0
(g7
g2
Ntp10856
Rp10857
(dp10858
g11
g0
(g12
g13
(lp10859
g680
ag7027
ag2075
ag161
ag1082
ag3237
ag937
ag662
ag1173
ag4929
ag827
ag3012
ag818
ag818
ag827
ag982
atp10860
Rp10861
sbsbag0
(g23
g2
Ntp10862
Rp10863
(dp10864
g6
g0
(g7
g2
Ntp10865
Rp10866
(dp10867
g11
g0
(g12
g13
(lp10868
g1054
ag1732
ag2327
ag2687
atp10869
Rp10870
sbsbag0
(g23
g2
Ntp10871
Rp10872
(dp10873
g6
g0
(g7
g2
Ntp10874
Rp10875
(dp10876
g11
g0
(g12
g13
(lp10877
g1054
ag1669
ag596
ag1009
ag1281
ag405
ag1823
atp10878
Rp10879
sbsbag0
(g23
g2
Ntp10880
Rp10881
(dp10882
g6
g0
(g7
g2
Ntp10883
Rp10884
(dp10885
g11
g0
(g12
g13
(lp10886
g1588
ag1462
ag1994
ag1390
atp10887
Rp10888
sbsbag0
(g23
g2
Ntp10889
Rp10890
(dp10891
g6
g0
(g7
g2
Ntp10892
Rp10893
(dp10894
g11
g0
(g12
g13
(lp10895
g450
ag781
ag1462
ag1263
ag1027
ag256
atp10896
Rp10897
sbsbatp10898
Rp10899
sbsbag0
(g15
g2
Ntp10900
Rp10901
(dp10902
g6
g0
(g7
g2
Ntp10903
Rp10904
(dp10905
g11
g0
(g12
g13
(lp10906
g0
(g23
g2
Ntp10907
Rp10908
(dp10909
g6
g0
(g7
g2
Ntp10910
Rp10911
(dp10912
g11
g0
(g12
g13
(lp10913
g450
ag3489
ag1000
ag1363
ag2408
ag1534
atp10914
Rp10915
sbsbag0
(g23
g2
Ntp10916
Rp10917
(dp10918
g6
g0
(g7
g2
Ntp10919
Rp10920
(dp10921
g11
g0
(g12
g13
(lp10922
g1904
ag432
ag1886
ag505
atp10923
Rp10924
sbsbag0
(g23
g2
Ntp10925
Rp10926
(dp10927
g6
g0
(g7
g2
Ntp10928
Rp10929
(dp10930
g11
g0
(g12
g13
(lp10931
g1109
ag560
ag256
ag763
atp10932
Rp10933
sbsbag0
(g23
g2
Ntp10934
Rp10935
(dp10936
g6
g0
(g7
g2
Ntp10937
Rp10938
(dp10939
g11
g0
(g12
g13
(lp10940
g2399
ag1146
ag3012
ag1660
ag560
ag1345
ag910
atp10941
Rp10942
sbsbag0
(g23
g2
Ntp10943
Rp10944
(dp10945
g6
g0
(g7
g2
Ntp10946
Rp10947
(dp10948
g11
g0
(g12
g13
(lp10949
g680
ag1462
ag1363
ag2525
atp10950
Rp10951
sbsbag0
(g23
g2
Ntp10952
Rp10953
(dp10954
g6
g0
(g7
g2
Ntp10955
Rp10956
(dp10957
g11
g0
(g12
g13
(lp10958
g882
ag643
ag142
ag285
ag1705
ag1561
ag1200
ag414
ag331
atp10959
Rp10960
sbsbag0
(g23
g2
Ntp10961
Rp10962
(dp10963
g6
g0
(g7
g2
Ntp10964
Rp10965
(dp10966
g11
g0
(g12
g13
(lp10967
g4254
ag1137
ag6568
ag1732
ag901
ag578
ag1922
ag1534
ag1254
ag423
atp10968
Rp10969
sbsbag0
(g23
g2
Ntp10970
Rp10971
(dp10972
g6
g0
(g7
g2
Ntp10973
Rp10974
(dp10975
g11
g0
(g12
g13
(lp10976
g1054
ag2408
ag982
ag1218
atp10977
Rp10978
sbsbag0
(g23
g2
Ntp10979
Rp10980
(dp10981
g6
g0
(g7
g2
Ntp10982
Rp10983
(dp10984
g11
g0
(g12
g13
(lp10985
g349
ag699
ag533
ag1462
ag717
ag1191
ag3012
atp10986
Rp10987
sbsbag0
(g23
g2
Ntp10988
Rp10989
(dp10990
g6
g0
(g7
g2
Ntp10991
Rp10992
(dp10993
g11
g0
(g12
g13
(lp10994
g1453
ag1886
ag1705
ag578
ag1705
ag1534
atp10995
Rp10996
sbsbag0
(g23
g2
Ntp10997
Rp10998
(dp10999
g6
g0
(g7
g2
Ntp11000
Rp11001
(dp11002
g11
g0
(g12
g13
(lp11003
g237
ag405
ag982
ag772
ag2732
ag1868
ag1570
atp11004
Rp11005
sbsbag0
(g23
g2
Ntp11006
Rp11007
(dp11008
g6
g0
(g7
g2
Ntp11009
Rp11010
(dp11011
g11
g0
(g12
g13
(lp11012
g1904
ag708
ag199
ag2651
ag161
ag505
atp11013
Rp11014
sbsbatp11015
Rp11016
sbsbag17
ag1439
ag1646
ag1962
ag2439
ag2664
ag2970
ag3205
ag3376
ag3547
ag3628
ag3844
ag4015
ag4141
ag4330
ag4474
ag4582
ag4663
ag4789
ag4888
ag5023
ag5176
ag5294
ag5429
ag5609
ag5744
ag5825
ag5951
ag6059
ag6194
ag6311
ag6473
ag6626
ag6779
atp11017
Rp11018
sbsb.